

Microchip MPLAB XC8 Assembler V2.41 build 20230208172133 
                                                                                               Tue Oct 10 15:14:43 2023

Microchip MPLAB XC8 C Compiler v2.41 (Free license) build 20230208172133 Og9 
     1                           	processor	16F877A
     2                           	pagewidth 120
     3                           	opt	flic
     4                           	psect	idataBANK0,global,class=CODE,delta=2,noexec
     5                           	psect	cinit,global,class=CODE,merge=1,delta=2
     6                           	psect	bssBANK0,global,class=BANK0,space=1,delta=1,noexec
     7                           	psect	dataBANK0,global,class=BANK0,space=1,delta=1,noexec
     8                           	psect	bssBANK1,global,class=BANK1,space=1,delta=1,noexec
     9                           	psect	clrtext,global,class=CODE,delta=2
    10                           	psect	cstackBANK1,global,class=BANK1,space=1,delta=1,noexec
    11                           	psect	cstackCOMMON,global,class=COMMON,space=1,delta=1,noexec
    12                           	psect	cstackBANK0,global,class=BANK0,space=1,delta=1,noexec
    13                           	psect	maintext,global,class=CODE,split=1,delta=2
    14                           	psect	text1,local,class=CODE,merge=1,delta=2
    15                           	psect	text2,local,class=CODE,merge=1,delta=2
    16                           	psect	text3,local,class=CODE,merge=1,delta=2
    17                           	psect	text4,local,class=CODE,merge=1,delta=2
    18                           	psect	text5,local,class=CODE,merge=1,delta=2
    19                           	psect	text6,local,class=CODE,merge=1,delta=2
    20                           	psect	text7,local,class=CODE,merge=1,delta=2
    21                           	psect	text8,local,class=CODE,merge=1,delta=2
    22                           	psect	text9,local,class=CODE,merge=1,delta=2
    23                           	psect	text10,local,class=CODE,merge=1,delta=2
    24                           	psect	intentry,global,class=CODE,delta=2
    25                           	psect	text11,local,class=CODE,merge=1,delta=2
    26                           	psect	text12,local,class=CODE,merge=1,delta=2
    27                           	psect	text13,local,class=CODE,merge=1,delta=2
    28                           	psect	text14,local,class=CODE,merge=1,delta=2
    29                           	psect	text15,local,class=CODE,merge=1,delta=2
    30                           	psect	text16,local,class=CODE,merge=1,delta=2
    31                           	psect	text17,local,class=CODE,merge=1,delta=2,group=1
    32                           	psect	text18,local,class=CODE,merge=1,delta=2,group=1
    33                           	psect	text19,local,class=CODE,merge=1,delta=2,group=1
    34                           	psect	text20,local,class=CODE,merge=1,delta=2,group=1
    35                           	psect	text21,local,class=CODE,merge=1,delta=2
    36                           	psect	text22,local,class=CODE,merge=1,delta=2,group=1
    37                           	psect	idloc,global,abs,ovrld,class=IDLOC,space=5,delta=2,noexec
    38                           	psect	config,global,abs,ovrld,class=CONFIG,space=4,delta=2,noexec
    39                           	dabs	1,0x7E,2
    40     0000                     
    41                           ; Version 2.40
    42                           ; Generated 17/11/2021 GMT
    43                           ; 
    44                           ; Copyright © 2021, Microchip Technology Inc. and its subsidiaries ("Microchip")
    45                           ; All rights reserved.
    46                           ; 
    47                           ; This software is developed by Microchip Technology Inc. and its subsidiaries ("Microch
      +                          ip").
    48                           ; 
    49                           ; Redistribution and use in source and binary forms, with or without modification, are
    50                           ; permitted provided that the following conditions are met:
    51                           ; 
    52                           ;     1. Redistributions of source code must retain the above copyright notice, this lis
      +                          t of
    53                           ;        conditions and the following disclaimer.
    54                           ; 
    55                           ;     2. Redistributions in binary form must reproduce the above copyright notice, this 
      +                          list
    56                           ;        of conditions and the following disclaimer in the documentation and/or other
    57                           ;        materials provided with the distribution. Publication is not required when
    58                           ;        this file is used in an embedded application.
    59                           ; 
    60                           ;     3. Microchip's name may not be used to endorse or promote products derived from th
      +                          is
    61                           ;        software without specific prior written permission.
    62                           ; 
    63                           ; THIS SOFTWARE IS PROVIDED BY MICROCHIP "AS IS" AND ANY EXPRESS OR IMPLIED WARRANTIES,
    64                           ; INCLUDING, BUT NOT LIMITED TO, THE IMPLIED WARRANTIES OF MERCHANTABILITY AND FITNESS F
      +                          OR
    65                           ; PURPOSE ARE DISCLAIMED.  IN NO EVENT SHALL MICROCHIP BE LIABLE FOR ANY DIRECT, INDIREC
      +                          T,
    66                           ; INCIDENTAL, SPECIAL, EXEMPLARY, OR CONSEQUENTIAL DAMAGES (INCLUDING BUT NOT LIMITED TO
    67                           ; PROCUREMENT OF SUBSTITUTE GOODS OR SERVICES; LOSS OF USE, DATA OR PROFITS; OR BUSINESS
    68                           ; INTERRUPTION) HOWSOEVER CAUSED AND ON ANY THEORY OF LIABILITY, WHETHER IN CONTRACT, ST
      +                          RICT
    69                           ; LIABILITY, OR TORT (INCLUDING NEGLIGENCE OR OTHERWISE) ARISING IN ANY WAY OUT OF THE U
      +                          SE OF
    70                           ; THIS SOFTWARE, EVEN IF ADVISED OF THE POSSIBILITY OF SUCH DAMAGE.
    71                           ; 
    72                           ; 
    73                           ; Code-generator required, PIC16F877A Definitions
    74                           ; 
    75                           ; SFR Addresses
    76     0000                     	;# 
    77     0001                     	;# 
    78     0002                     	;# 
    79     0003                     	;# 
    80     0004                     	;# 
    81     0005                     	;# 
    82     0006                     	;# 
    83     0007                     	;# 
    84     0008                     	;# 
    85     0009                     	;# 
    86     000A                     	;# 
    87     000B                     	;# 
    88     000C                     	;# 
    89     000D                     	;# 
    90     000E                     	;# 
    91     000E                     	;# 
    92     000F                     	;# 
    93     0010                     	;# 
    94     0011                     	;# 
    95     0012                     	;# 
    96     0013                     	;# 
    97     0014                     	;# 
    98     0015                     	;# 
    99     0015                     	;# 
   100     0016                     	;# 
   101     0017                     	;# 
   102     0018                     	;# 
   103     0019                     	;# 
   104     001A                     	;# 
   105     001B                     	;# 
   106     001B                     	;# 
   107     001C                     	;# 
   108     001D                     	;# 
   109     001E                     	;# 
   110     001F                     	;# 
   111     0081                     	;# 
   112     0085                     	;# 
   113     0086                     	;# 
   114     0087                     	;# 
   115     0088                     	;# 
   116     0089                     	;# 
   117     008C                     	;# 
   118     008D                     	;# 
   119     008E                     	;# 
   120     0091                     	;# 
   121     0092                     	;# 
   122     0093                     	;# 
   123     0094                     	;# 
   124     0098                     	;# 
   125     0099                     	;# 
   126     009C                     	;# 
   127     009D                     	;# 
   128     009E                     	;# 
   129     009F                     	;# 
   130     010C                     	;# 
   131     010D                     	;# 
   132     010E                     	;# 
   133     010F                     	;# 
   134     018C                     	;# 
   135     018D                     	;# 
   136     0000                     	;# 
   137     0001                     	;# 
   138     0002                     	;# 
   139     0003                     	;# 
   140     0004                     	;# 
   141     0005                     	;# 
   142     0006                     	;# 
   143     0007                     	;# 
   144     0008                     	;# 
   145     0009                     	;# 
   146     000A                     	;# 
   147     000B                     	;# 
   148     000C                     	;# 
   149     000D                     	;# 
   150     000E                     	;# 
   151     000E                     	;# 
   152     000F                     	;# 
   153     0010                     	;# 
   154     0011                     	;# 
   155     0012                     	;# 
   156     0013                     	;# 
   157     0014                     	;# 
   158     0015                     	;# 
   159     0015                     	;# 
   160     0016                     	;# 
   161     0017                     	;# 
   162     0018                     	;# 
   163     0019                     	;# 
   164     001A                     	;# 
   165     001B                     	;# 
   166     001B                     	;# 
   167     001C                     	;# 
   168     001D                     	;# 
   169     001E                     	;# 
   170     001F                     	;# 
   171     0081                     	;# 
   172     0085                     	;# 
   173     0086                     	;# 
   174     0087                     	;# 
   175     0088                     	;# 
   176     0089                     	;# 
   177     008C                     	;# 
   178     008D                     	;# 
   179     008E                     	;# 
   180     0091                     	;# 
   181     0092                     	;# 
   182     0093                     	;# 
   183     0094                     	;# 
   184     0098                     	;# 
   185     0099                     	;# 
   186     009C                     	;# 
   187     009D                     	;# 
   188     009E                     	;# 
   189     009F                     	;# 
   190     010C                     	;# 
   191     010D                     	;# 
   192     010E                     	;# 
   193     010F                     	;# 
   194     018C                     	;# 
   195     018D                     	;# 
   196     0000                     	;# 
   197     0001                     	;# 
   198     0002                     	;# 
   199     0003                     	;# 
   200     0004                     	;# 
   201     0005                     	;# 
   202     0006                     	;# 
   203     0007                     	;# 
   204     0008                     	;# 
   205     0009                     	;# 
   206     000A                     	;# 
   207     000B                     	;# 
   208     000C                     	;# 
   209     000D                     	;# 
   210     000E                     	;# 
   211     000E                     	;# 
   212     000F                     	;# 
   213     0010                     	;# 
   214     0011                     	;# 
   215     0012                     	;# 
   216     0013                     	;# 
   217     0014                     	;# 
   218     0015                     	;# 
   219     0015                     	;# 
   220     0016                     	;# 
   221     0017                     	;# 
   222     0018                     	;# 
   223     0019                     	;# 
   224     001A                     	;# 
   225     001B                     	;# 
   226     001B                     	;# 
   227     001C                     	;# 
   228     001D                     	;# 
   229     001E                     	;# 
   230     001F                     	;# 
   231     0081                     	;# 
   232     0085                     	;# 
   233     0086                     	;# 
   234     0087                     	;# 
   235     0088                     	;# 
   236     0089                     	;# 
   237     008C                     	;# 
   238     008D                     	;# 
   239     008E                     	;# 
   240     0091                     	;# 
   241     0092                     	;# 
   242     0093                     	;# 
   243     0094                     	;# 
   244     0098                     	;# 
   245     0099                     	;# 
   246     009C                     	;# 
   247     009D                     	;# 
   248     009E                     	;# 
   249     009F                     	;# 
   250     010C                     	;# 
   251     010D                     	;# 
   252     010E                     	;# 
   253     010F                     	;# 
   254     018C                     	;# 
   255     018D                     	;# 
   256     0000                     	;# 
   257     0001                     	;# 
   258     0002                     	;# 
   259     0003                     	;# 
   260     0004                     	;# 
   261     0005                     	;# 
   262     0006                     	;# 
   263     0007                     	;# 
   264     0008                     	;# 
   265     0009                     	;# 
   266     000A                     	;# 
   267     000B                     	;# 
   268     000C                     	;# 
   269     000D                     	;# 
   270     000E                     	;# 
   271     000E                     	;# 
   272     000F                     	;# 
   273     0010                     	;# 
   274     0011                     	;# 
   275     0012                     	;# 
   276     0013                     	;# 
   277     0014                     	;# 
   278     0015                     	;# 
   279     0015                     	;# 
   280     0016                     	;# 
   281     0017                     	;# 
   282     0018                     	;# 
   283     0019                     	;# 
   284     001A                     	;# 
   285     001B                     	;# 
   286     001B                     	;# 
   287     001C                     	;# 
   288     001D                     	;# 
   289     001E                     	;# 
   290     001F                     	;# 
   291     0081                     	;# 
   292     0085                     	;# 
   293     0086                     	;# 
   294     0087                     	;# 
   295     0088                     	;# 
   296     0089                     	;# 
   297     008C                     	;# 
   298     008D                     	;# 
   299     008E                     	;# 
   300     0091                     	;# 
   301     0092                     	;# 
   302     0093                     	;# 
   303     0094                     	;# 
   304     0098                     	;# 
   305     0099                     	;# 
   306     009C                     	;# 
   307     009D                     	;# 
   308     009E                     	;# 
   309     009F                     	;# 
   310     010C                     	;# 
   311     010D                     	;# 
   312     010E                     	;# 
   313     010F                     	;# 
   314     018C                     	;# 
   315     018D                     	;# 
   316     0000                     	;# 
   317     0001                     	;# 
   318     0002                     	;# 
   319     0003                     	;# 
   320     0004                     	;# 
   321     0005                     	;# 
   322     0006                     	;# 
   323     0007                     	;# 
   324     0008                     	;# 
   325     0009                     	;# 
   326     000A                     	;# 
   327     000B                     	;# 
   328     000C                     	;# 
   329     000D                     	;# 
   330     000E                     	;# 
   331     000E                     	;# 
   332     000F                     	;# 
   333     0010                     	;# 
   334     0011                     	;# 
   335     0012                     	;# 
   336     0013                     	;# 
   337     0014                     	;# 
   338     0015                     	;# 
   339     0015                     	;# 
   340     0016                     	;# 
   341     0017                     	;# 
   342     0018                     	;# 
   343     0019                     	;# 
   344     001A                     	;# 
   345     001B                     	;# 
   346     001B                     	;# 
   347     001C                     	;# 
   348     001D                     	;# 
   349     001E                     	;# 
   350     001F                     	;# 
   351     0081                     	;# 
   352     0085                     	;# 
   353     0086                     	;# 
   354     0087                     	;# 
   355     0088                     	;# 
   356     0089                     	;# 
   357     008C                     	;# 
   358     008D                     	;# 
   359     008E                     	;# 
   360     0091                     	;# 
   361     0092                     	;# 
   362     0093                     	;# 
   363     0094                     	;# 
   364     0098                     	;# 
   365     0099                     	;# 
   366     009C                     	;# 
   367     009D                     	;# 
   368     009E                     	;# 
   369     009F                     	;# 
   370     010C                     	;# 
   371     010D                     	;# 
   372     010E                     	;# 
   373     010F                     	;# 
   374     018C                     	;# 
   375     018D                     	;# 
   376     0000                     	;# 
   377     0001                     	;# 
   378     0002                     	;# 
   379     0003                     	;# 
   380     0004                     	;# 
   381     0005                     	;# 
   382     0006                     	;# 
   383     0007                     	;# 
   384     0008                     	;# 
   385     0009                     	;# 
   386     000A                     	;# 
   387     000B                     	;# 
   388     000C                     	;# 
   389     000D                     	;# 
   390     000E                     	;# 
   391     000E                     	;# 
   392     000F                     	;# 
   393     0010                     	;# 
   394     0011                     	;# 
   395     0012                     	;# 
   396     0013                     	;# 
   397     0014                     	;# 
   398     0015                     	;# 
   399     0015                     	;# 
   400     0016                     	;# 
   401     0017                     	;# 
   402     0018                     	;# 
   403     0019                     	;# 
   404     001A                     	;# 
   405     001B                     	;# 
   406     001B                     	;# 
   407     001C                     	;# 
   408     001D                     	;# 
   409     001E                     	;# 
   410     001F                     	;# 
   411     0081                     	;# 
   412     0085                     	;# 
   413     0086                     	;# 
   414     0087                     	;# 
   415     0088                     	;# 
   416     0089                     	;# 
   417     008C                     	;# 
   418     008D                     	;# 
   419     008E                     	;# 
   420     0091                     	;# 
   421     0092                     	;# 
   422     0093                     	;# 
   423     0094                     	;# 
   424     0098                     	;# 
   425     0099                     	;# 
   426     009C                     	;# 
   427     009D                     	;# 
   428     009E                     	;# 
   429     009F                     	;# 
   430     010C                     	;# 
   431     010D                     	;# 
   432     010E                     	;# 
   433     010F                     	;# 
   434     018C                     	;# 
   435     018D                     	;# 
   436     0000                     	;# 
   437     0001                     	;# 
   438     0002                     	;# 
   439     0003                     	;# 
   440     0004                     	;# 
   441     0005                     	;# 
   442     0006                     	;# 
   443     0007                     	;# 
   444     0008                     	;# 
   445     0009                     	;# 
   446     000A                     	;# 
   447     000B                     	;# 
   448     000C                     	;# 
   449     000D                     	;# 
   450     000E                     	;# 
   451     000E                     	;# 
   452     000F                     	;# 
   453     0010                     	;# 
   454     0011                     	;# 
   455     0012                     	;# 
   456     0013                     	;# 
   457     0014                     	;# 
   458     0015                     	;# 
   459     0015                     	;# 
   460     0016                     	;# 
   461     0017                     	;# 
   462     0018                     	;# 
   463     0019                     	;# 
   464     001A                     	;# 
   465     001B                     	;# 
   466     001B                     	;# 
   467     001C                     	;# 
   468     001D                     	;# 
   469     001E                     	;# 
   470     001F                     	;# 
   471     0081                     	;# 
   472     0085                     	;# 
   473     0086                     	;# 
   474     0087                     	;# 
   475     0088                     	;# 
   476     0089                     	;# 
   477     008C                     	;# 
   478     008D                     	;# 
   479     008E                     	;# 
   480     0091                     	;# 
   481     0092                     	;# 
   482     0093                     	;# 
   483     0094                     	;# 
   484     0098                     	;# 
   485     0099                     	;# 
   486     009C                     	;# 
   487     009D                     	;# 
   488     009E                     	;# 
   489     009F                     	;# 
   490     010C                     	;# 
   491     010D                     	;# 
   492     010E                     	;# 
   493     010F                     	;# 
   494     018C                     	;# 
   495     018D                     	;# 
   496                           
   497                           	psect	idataBANK0
   498     0003                     __pidataBANK0:
   499                           
   500                           ;initializer for _distance_command
   501     0003  3461               	retlw	97
   502     0015                     _CCPR1	set	21
   503     000E                     _TMR1	set	14
   504     0017                     _CCP1CON	set	23
   505     0014                     _SSPCONbits	set	20
   506     0013                     _SSPBUF	set	19
   507     0001                     _TMR0	set	1
   508     00C7                     _SPEN	set	199
   509     005D                     _TMR0IE	set	93
   510     00B8                     _CCP1M0	set	184
   511     00B9                     _CCP1M1	set	185
   512     00BA                     _CCP1M2	set	186
   513     00BB                     _CCP1M3	set	187
   514     0080                     _TMR1ON	set	128
   515     0084                     _T1CKPS0	set	132
   516     0085                     _T1CKPS1	set	133
   517     0081                     _TMR1CS	set	129
   518     005F                     _GIE	set	95
   519     005E                     _PEIE	set	94
   520     00A0                     _SSPM0	set	160
   521     00A1                     _SSPM1	set	161
   522     00A2                     _SSPM2	set	162
   523     00A3                     _SSPM3	set	163
   524     00A5                     _SSPEN	set	165
   525     00A4                     _CKP	set	164
   526     00A6                     _SSPOV	set	166
   527     00A7                     _WCOL	set	167
   528     0063                     _SSPIF	set	99
   529     0062                     _CCP1IF	set	98
   530     005A                     _TMR0IF	set	90
   531     0040                     _RD0	set	64
   532     0099                     _SPBRG	set	153
   533     0093                     _SSPADD	set	147
   534     0091                     _SSPCON2	set	145
   535     0094                     _SSPSTAT	set	148
   536     0094                     _SSPSTATbits	set	148
   537     04C2                     _BRGH	set	1218
   538     04C5                     _TXEN	set	1221
   539     04C6                     _TX9	set	1222
   540     04C4                     _SYNC	set	1220
   541     043F                     _TRISC7	set	1087
   542     043E                     _TRISC6	set	1086
   543     040D                     _T0CS	set	1037
   544     0408                     _PS0	set	1032
   545     0409                     _PS1	set	1033
   546     040A                     _PS2	set	1034
   547     040B                     _PSA	set	1035
   548     043A                     _TRISC2	set	1082
   549     0462                     _CCP1IE	set	1122
   550     0463                     _SSPIE	set	1123
   551     043C                     _TRISC4	set	1084
   552     043B                     _TRISC3	set	1083
   553     04A2                     _R_nW	set	1186
   554     0440                     _TRISD0	set	1088
   555                           
   556                           	psect	cinit
   557     0013                     start_initialization:	
   558                           ; #config settings
   559                           
   560     0013                     __initialization:
   561                           
   562                           ; Initialize objects allocated to BANK0
   563     0013  120A  118A  2003  120A  118A  	fcall	__pidataBANK0	;fetch initializer
   564     0018  00EF               	movwf	__pdataBANK0& (0+127)
   565                           
   566                           ; Clear objects allocated to BANK1
   567     0019  1383               	bcf	3,7	;select IRP bank0
   568     001A  30A0               	movlw	low __pbssBANK1
   569     001B  0084               	movwf	4
   570     001C  30B9               	movlw	low (__pbssBANK1+25)
   571     001D  120A  118A  27F8  120A  118A  	fcall	clear_ram0
   572                           
   573                           ; Clear objects allocated to BANK0
   574     0022  3067               	movlw	low __pbssBANK0
   575     0023  0084               	movwf	4
   576     0024  306F               	movlw	low (__pbssBANK0+8)
   577     0025  120A  118A  27F8   	fcall	clear_ram0
   578     0028                     end_of_initialization:	
   579                           ;End of C runtime variable initialization code
   580                           
   581     0028                     __end_of__initialization:
   582     0028  0183               	clrf	3
   583     0029  120A  118A  2F75   	ljmp	_main	;jump to C main() function
   584                           
   585                           	psect	bssBANK0
   586     0067                     __pbssBANK0:
   587     0067                     _uart_str_idx:
   588     0067                     	ds	2
   589     0069                     _fallT2:
   590     0069                     	ds	2
   591     006B                     _riseT1:
   592     006B                     	ds	2
   593     006D                     _count:
   594     006D                     	ds	1
   595     006E                     _hcsr04_state:
   596     006E                     	ds	1
   597                           
   598                           	psect	dataBANK0
   599     006F                     __pdataBANK0:
   600     006F                     _distance_command:
   601     006F                     	ds	1
   602                           
   603                           	psect	bssBANK1
   604     00A0                     __pbssBANK1:
   605     00A0                     _tx_buffer:
   606     00A0                     	ds	15
   607     00AF                     _obs_distance:
   608     00AF                     	ds	4
   609     00B3                     _hcsr04_distance:
   610     00B3                     	ds	4
   611     00B7                     _uart_str_idx@PIC16F877A_UART$F381:
   612     00B7                     	ds	2
   613                           
   614                           	psect	clrtext
   615     07F8                     clear_ram0:	
   616                           ;	Called with FSR containing the base address, and
   617                           ;	W with the last address+1
   618                           
   619     07F8  0064               	clrwdt	;clear the watchdog before getting into this loop
   620     07F9                     clrloop0:
   621     07F9  0180               	clrf	0	;clear RAM location pointed to by FSR
   622     07FA  0A84               	incf	4,f	;increment pointer
   623     07FB  0604               	xorwf	4,w	;XOR with final address
   624     07FC  1903               	btfsc	3,2	;have we reached the end yet?
   625     07FD  3400               	retlw	0	;all done for this memory range, return
   626     07FE  0604               	xorwf	4,w	;XOR again to restore value
   627     07FF  2FF9               	goto	clrloop0	;do the next byte
   628                           
   629                           	psect	cstackBANK1
   630     00B9                     __pcstackBANK1:
   631     00B9                     ??_captureRisingInit:
   632     00B9                     ??_I2C_Slave_Init:	
   633                           ; 1 bytes @ 0x0
   634                           
   635     00B9                     ??_UARTTransInit:	
   636                           ; 1 bytes @ 0x0
   637                           
   638     00B9                     ??_trigConfig:	
   639                           ; 1 bytes @ 0x0
   640                           
   641     00B9                     ??_hcsr04Init:	
   642                           ; 1 bytes @ 0x0
   643                           
   644     00B9                     ??_timer1Init:	
   645                           ; 1 bytes @ 0x0
   646                           
   647     00B9                     ??_ccp1InterruptInit:	
   648                           ; 1 bytes @ 0x0
   649                           
   650     00B9                     ?_timer0SetPrescaler:	
   651                           ; 1 bytes @ 0x0
   652                           
   653     00B9                     I2C_Slave_Init@slave_address:	
   654                           ; 1 bytes @ 0x0
   655                           
   656     00B9                     timer0SetPrescaler@prescaler:	
   657                           ; 1 bytes @ 0x0
   658                           
   659                           
   660                           ; 2 bytes @ 0x0
   661     00B9                     	ds	2
   662     00BB                     ?_timer0TimerInit:
   663     00BB                     ??_timer0SetPrescaler:	
   664                           ; 1 bytes @ 0x2
   665                           
   666     00BB                     timer0TimerInit@prescaler:	
   667                           ; 1 bytes @ 0x2
   668                           
   669                           
   670                           ; 2 bytes @ 0x2
   671     00BB                     	ds	2
   672     00BD                     ??_timer0TimerInit:
   673     00BD                     ??_main:	
   674                           ; 1 bytes @ 0x4
   675                           
   676                           
   677                           	psect	cstackCOMMON
   678     0070                     __pcstackCOMMON:	
   679                           ; 1 bytes @ 0x4
   680                           
   681     0070                     ?___flge:
   682     0070                     ?_captureRisingInit:	
   683                           ; 1 bit 
   684                           
   685     0070                     ?_changeModeFalling:	
   686                           ; 1 bytes @ 0x0
   687                           
   688     0070                     ??_changeModeFalling:	
   689                           ; 1 bytes @ 0x0
   690                           
   691     0070                     ?_changeModeRising:	
   692                           ; 1 bytes @ 0x0
   693                           
   694     0070                     ??_changeModeRising:	
   695                           ; 1 bytes @ 0x0
   696                           
   697     0070                     ?_I2C_Slave_Init:	
   698                           ; 1 bytes @ 0x0
   699                           
   700     0070                     ?_UARTTransInit:	
   701                           ; 1 bytes @ 0x0
   702                           
   703     0070                     ?_trigConfig:	
   704                           ; 1 bytes @ 0x0
   705                           
   706     0070                     ?_hcsr04Init:	
   707                           ; 1 bytes @ 0x0
   708                           
   709     0070                     ?_hcsr04Trigger:	
   710                           ; 1 bytes @ 0x0
   711                           
   712     0070                     ??_hcsr04Trigger:	
   713                           ; 1 bytes @ 0x0
   714                           
   715     0070                     ?_hcsr04Distance:	
   716                           ; 1 bytes @ 0x0
   717                           
   718     0070                     ?_ISR:	
   719                           ; 1 bytes @ 0x0
   720                           
   721     0070                     ?_main:	
   722                           ; 1 bytes @ 0x0
   723                           
   724     0070                     ?_timer1Init:	
   725                           ; 1 bytes @ 0x0
   726                           
   727     0070                     ?_ccp1InterruptInit:	
   728                           ; 1 bytes @ 0x0
   729                           
   730     0070                     ?_disableCCP1:	
   731                           ; 1 bytes @ 0x0
   732                           
   733     0070                     ??_disableCCP1:	
   734                           ; 1 bytes @ 0x0
   735                           
   736     0070                     ?__Umul8_16:	
   737                           ; 1 bytes @ 0x0
   738                           
   739     0070                     ?_getDistance:	
   740                           ; 2 bytes @ 0x0
   741                           
   742     0070                     ?___xxtofl:	
   743                           ; 4 bytes @ 0x0
   744                           
   745     0070                     __Umul8_16@multiplicand:	
   746                           ; 4 bytes @ 0x0
   747                           
   748     0070                     ___flge@ff1:	
   749                           ; 1 bytes @ 0x0
   750                           
   751     0070                     ___xxtofl@val:	
   752                           ; 4 bytes @ 0x0
   753                           
   754                           
   755                           ; 4 bytes @ 0x0
   756     0070                     	ds	2
   757     0072                     ??__Umul8_16:
   758                           
   759                           ; 1 bytes @ 0x2
   760     0072                     	ds	2
   761     0074                     ??_getDistance:
   762     0074                     ??___xxtofl:	
   763                           ; 1 bytes @ 0x4
   764                           
   765     0074                     __Umul8_16@product:	
   766                           ; 1 bytes @ 0x4
   767                           
   768     0074                     ___flge@ff2:	
   769                           ; 2 bytes @ 0x4
   770                           
   771                           
   772                           ; 4 bytes @ 0x4
   773     0074                     	ds	2
   774     0076                     __Umul8_16@word_mpld:
   775                           
   776                           ; 2 bytes @ 0x6
   777     0076                     	ds	2
   778     0078                     ??___flge:
   779     0078                     __Umul8_16@multiplier:	
   780                           ; 1 bytes @ 0x8
   781                           
   782     0078                     ___xxtofl@sign:	
   783                           ; 1 bytes @ 0x8
   784                           
   785                           
   786                           ; 1 bytes @ 0x8
   787     0078                     	ds	1
   788     0079                     ___xxtofl@exp:
   789                           
   790                           ; 1 bytes @ 0x9
   791     0079                     	ds	1
   792     007A                     ___xxtofl@arg:
   793                           
   794                           ; 4 bytes @ 0xA
   795     007A                     	ds	4
   796     007E                     ??_calDistance:
   797     007E                     ??_hcsr04Distance:	
   798                           ; 1 bytes @ 0xE
   799                           
   800                           
   801                           	psect	cstackBANK0
   802     0020                     __pcstackBANK0:	
   803                           ; 1 bytes @ 0xE
   804                           
   805     0020                     ?___fldiv:
   806     0020                     ___fldiv@a:	
   807                           ; 4 bytes @ 0x0
   808                           
   809                           
   810                           ; 4 bytes @ 0x0
   811     0020                     	ds	4
   812     0024                     ___fldiv@b:
   813                           
   814                           ; 4 bytes @ 0x4
   815     0024                     	ds	4
   816     0028                     ??___fldiv:
   817                           
   818                           ; 1 bytes @ 0x8
   819     0028                     	ds	5
   820     002D                     ___fldiv@rem:
   821                           
   822                           ; 4 bytes @ 0xD
   823     002D                     	ds	4
   824     0031                     ___fldiv@sign:
   825                           
   826                           ; 1 bytes @ 0x11
   827     0031                     	ds	1
   828     0032                     ___fldiv@new_exp:
   829                           
   830                           ; 2 bytes @ 0x12
   831     0032                     	ds	2
   832     0034                     ___fldiv@grs:
   833                           
   834                           ; 4 bytes @ 0x14
   835     0034                     	ds	4
   836     0038                     ___fldiv@bexp:
   837                           
   838                           ; 1 bytes @ 0x18
   839     0038                     	ds	1
   840     0039                     ___fldiv@aexp:
   841                           
   842                           ; 1 bytes @ 0x19
   843     0039                     	ds	1
   844     003A                     ?___flmul:
   845     003A                     ___flmul@b:	
   846                           ; 4 bytes @ 0x1A
   847                           
   848                           
   849                           ; 4 bytes @ 0x1A
   850     003A                     	ds	4
   851     003E                     ___flmul@a:
   852                           
   853                           ; 4 bytes @ 0x1E
   854     003E                     	ds	4
   855     0042                     ??___flmul:
   856                           
   857                           ; 1 bytes @ 0x22
   858     0042                     	ds	5
   859     0047                     ___flmul@sign:
   860                           
   861                           ; 1 bytes @ 0x27
   862     0047                     	ds	1
   863     0048                     ___flmul@aexp:
   864                           
   865                           ; 1 bytes @ 0x28
   866     0048                     	ds	1
   867     0049                     ___flmul@grs:
   868                           
   869                           ; 4 bytes @ 0x29
   870     0049                     	ds	4
   871     004D                     ___flmul@bexp:
   872                           
   873                           ; 1 bytes @ 0x2D
   874     004D                     	ds	1
   875     004E                     ___flmul@prod:
   876                           
   877                           ; 4 bytes @ 0x2E
   878     004E                     	ds	4
   879     0052                     ___flmul@temp:
   880                           
   881                           ; 2 bytes @ 0x32
   882     0052                     	ds	2
   883     0054                     ?_calDistance:
   884                           
   885                           ; 4 bytes @ 0x34
   886     0054                     	ds	4
   887     0058                     calDistance@time:
   888                           
   889                           ; 4 bytes @ 0x38
   890     0058                     	ds	4
   891     005C                     calDistance@distance:
   892                           
   893                           ; 4 bytes @ 0x3C
   894     005C                     	ds	4
   895     0060                     _calDistance$1078:
   896                           
   897                           ; 4 bytes @ 0x40
   898     0060                     	ds	4
   899     0064                     ??_ISR:
   900                           
   901                           ; 1 bytes @ 0x44
   902     0064                     	ds	3
   903                           
   904                           	psect	maintext
   905     0775                     __pmaintext:	
   906 ;;
   907 ;;Main: autosize = 0, tempsize = 0, incstack = 0, save=0
   908 ;;
   909 ;; *************** function _main *****************
   910 ;; Defined at:
   911 ;;		line 77 in file "PIC16F877A_line_follower_robot.c"
   912 ;; Parameters:    Size  Location     Type
   913 ;;		None
   914 ;; Auto vars:     Size  Location     Type
   915 ;;		None
   916 ;; Return value:  Size  Location     Type
   917 ;;                  1    wreg      void 
   918 ;; Registers used:
   919 ;;		wreg, fsr0l, fsr0h, status,2, status,0, pclath, cstack
   920 ;; Tracked objects:
   921 ;;		On entry : B00/0
   922 ;;		On exit  : 200/0
   923 ;;		Unchanged: 0/0
   924 ;; Data sizes:     COMMON   BANK0   BANK1   BANK3   BANK2
   925 ;;      Params:         0       0       0       0       0
   926 ;;      Locals:         0       0       0       0       0
   927 ;;      Temps:          0       0       0       0       0
   928 ;;      Totals:         0       0       0       0       0
   929 ;;Total ram usage:        0 bytes
   930 ;; Hardware stack levels required when called: 8
   931 ;; This function calls:
   932 ;;		_I2C_Slave_Init
   933 ;;		_UARTTransInit
   934 ;;		_hcsr04Init
   935 ;;		_timer0TimerInit
   936 ;; This function is called by:
   937 ;;		Startup code after reset
   938 ;; This function uses a non-reentrant model
   939 ;;
   940                           
   941     0775                     _main:	
   942                           ;psect for function _main
   943                           
   944                           
   945                           ;PIC16F877A_line_follower_robot.c: 80:     I2C_Slave_Init(0x10);
   946                           
   947                           ;incstack = 0
   948                           ; Regs used in _main: [wreg-fsr0h+status,2+status,0+pclath+cstack]
   949     0775  3010               	movlw	16
   950     0776  120A  118A  2793  120A  118A  	fcall	_I2C_Slave_Init
   951                           
   952                           ;PIC16F877A_line_follower_robot.c: 82:     TMR0 = 6;
   953     077B  3006               	movlw	6
   954     077C  1283               	bcf	3,5	;RP0=0, select bank0
   955     077D  0081               	movwf	1	;volatile
   956                           
   957                           ;PIC16F877A_line_follower_robot.c: 83:     timer0TimerInit(TIMER0_DIV_16);
   958     077E  3010               	movlw	16
   959     077F  1683               	bsf	3,5	;RP0=1, select bank1
   960     0780  00BB               	movwf	timer0TimerInit@prescaler^(0+128)
   961     0781  3000               	movlw	0
   962     0782  00BC               	movwf	(timer0TimerInit@prescaler^(0+128)+1)
   963     0783  120A  118A  27AC  120A  118A  	fcall	_timer0TimerInit
   964                           
   965                           ;PIC16F877A_line_follower_robot.c: 85:     hcsr04Init();
   966     0788  120A  158A  27F7  120A  118A  	fcall	_hcsr04Init
   967                           
   968                           ;PIC16F877A_line_follower_robot.c: 87:     UARTTransInit();
   969     078D  120A  118A  27CC  120A  118A  	fcall	_UARTTransInit
   970     0792                     l115:	
   971                           ;PIC16F877A_line_follower_robot.c: 89:     while(1)
   972                           
   973                           
   974                           ;PIC16F877A_line_follower_robot.c: 90:     {;PIC16F877A_line_follower_robot.c: 94:     }
   975     0792  2F92               	goto	l115
   976     0793                     __end_of_main:
   977                           
   978                           	psect	text1
   979     07AC                     __ptext1:	
   980 ;; *************** function _timer0TimerInit *****************
   981 ;; Defined at:
   982 ;;		line 63 in file "PIC16F877A_timer0.c"
   983 ;; Parameters:    Size  Location     Type
   984 ;;  prescaler       2    2[BANK1 ] unsigned int 
   985 ;; Auto vars:     Size  Location     Type
   986 ;;		None
   987 ;; Return value:  Size  Location     Type
   988 ;;                  1    wreg      void 
   989 ;; Registers used:
   990 ;;		wreg, fsr0l, fsr0h, status,2, status,0, pclath, cstack
   991 ;; Tracked objects:
   992 ;;		On entry : B00/100
   993 ;;		On exit  : B00/100
   994 ;;		Unchanged: 800/0
   995 ;; Data sizes:     COMMON   BANK0   BANK1   BANK3   BANK2
   996 ;;      Params:         0       0       2       0       0
   997 ;;      Locals:         0       0       0       0       0
   998 ;;      Temps:          0       0       0       0       0
   999 ;;      Totals:         0       0       2       0       0
  1000 ;;Total ram usage:        2 bytes
  1001 ;; Hardware stack levels used: 1
  1002 ;; Hardware stack levels required when called: 6
  1003 ;; This function calls:
  1004 ;;		_timer0SetPrescaler
  1005 ;; This function is called by:
  1006 ;;		_main
  1007 ;; This function uses a non-reentrant model
  1008 ;;
  1009                           
  1010     07AC                     _timer0TimerInit:	
  1011                           ;psect for function _timer0TimerInit
  1012                           
  1013                           
  1014                           ;PIC16F877A_timer0.c: 63: void timer0TimerInit(uint16_t prescaler);PIC16F877A_timer0.c: 
      +                          64: {;PIC16F877A_timer0.c: 66:     TMR0 = 0;
  1015                           
  1016                           ;incstack = 0
  1017                           ; Regs used in _timer0TimerInit: [wreg-fsr0h+status,2+status,0+pclath+cstack]
  1018     07AC  1283               	bcf	3,5	;RP0=0, select bank0
  1019     07AD  0181               	clrf	1	;volatile
  1020                           
  1021                           ;PIC16F877A_timer0.c: 68:     T0CS = 0;
  1022     07AE  1683               	bsf	3,5	;RP0=1, select bank1
  1023     07AF  1281               	bcf	1,5	;volatile
  1024                           
  1025                           ;PIC16F877A_timer0.c: 70:     PSA = 0;
  1026     07B0  1181               	bcf	1,3	;volatile
  1027                           
  1028                           ;PIC16F877A_timer0.c: 72:     timer0SetPrescaler(prescaler);
  1029     07B1  083C               	movf	(timer0TimerInit@prescaler+1)^(0+128),w
  1030     07B2  00BA               	movwf	(timer0SetPrescaler@prescaler+1)^(0+128)
  1031     07B3  083B               	movf	timer0TimerInit@prescaler^(0+128),w
  1032     07B4  00B9               	movwf	timer0SetPrescaler@prescaler^(0+128)
  1033     07B5  120A  118A  26D3   	fcall	_timer0SetPrescaler
  1034                           
  1035                           ;PIC16F877A_timer0.c: 74:     TMR0IF = 0;
  1036     07B8  110B               	bcf	11,2	;volatile
  1037                           
  1038                           ;PIC16F877A_timer0.c: 75:     TMR0IE = 1;
  1039     07B9  168B               	bsf	11,5	;volatile
  1040                           
  1041                           ;PIC16F877A_timer0.c: 76:     GIE = 1;
  1042     07BA  178B               	bsf	11,7	;volatile
  1043     07BB  0008               	return
  1044     07BC                     __end_of_timer0TimerInit:
  1045                           
  1046                           	psect	text2
  1047     06D3                     __ptext2:	
  1048 ;; *************** function _timer0SetPrescaler *****************
  1049 ;; Defined at:
  1050 ;;		line 6 in file "PIC16F877A_timer0.c"
  1051 ;; Parameters:    Size  Location     Type
  1052 ;;  prescaler       2    0[BANK1 ] unsigned int 
  1053 ;; Auto vars:     Size  Location     Type
  1054 ;;		None
  1055 ;; Return value:  Size  Location     Type
  1056 ;;                  1    wreg      void 
  1057 ;; Registers used:
  1058 ;;		wreg, fsr0l, fsr0h, status,2, status,0
  1059 ;; Tracked objects:
  1060 ;;		On entry : B00/100
  1061 ;;		On exit  : B00/100
  1062 ;;		Unchanged: 800/0
  1063 ;; Data sizes:     COMMON   BANK0   BANK1   BANK3   BANK2
  1064 ;;      Params:         0       0       2       0       0
  1065 ;;      Locals:         0       0       0       0       0
  1066 ;;      Temps:          0       0       0       0       0
  1067 ;;      Totals:         0       0       2       0       0
  1068 ;;Total ram usage:        2 bytes
  1069 ;; Hardware stack levels used: 1
  1070 ;; Hardware stack levels required when called: 5
  1071 ;; This function calls:
  1072 ;;		Nothing
  1073 ;; This function is called by:
  1074 ;;		_timer0TimerInit
  1075 ;; This function uses a non-reentrant model
  1076 ;;
  1077                           
  1078     06D3                     _timer0SetPrescaler:	
  1079                           ;psect for function _timer0SetPrescaler
  1080                           
  1081                           
  1082                           ;PIC16F877A_timer0.c: 6: static void timer0SetPrescaler(uint16_t prescaler);PIC16F877A_t
      +                          imer0.c: 7: {;PIC16F877A_timer0.c: 8:     switch(prescaler)
  1083                           
  1084                           ;incstack = 0
  1085                           ; Regs used in _timer0SetPrescaler: [wreg-fsr0h+status,2+status,0]
  1086     06D3  2EF9               	goto	l2026
  1087     06D4                     l313:	
  1088                           ;PIC16F877A_timer0.c: 9:     {;PIC16F877A_timer0.c: 10:         case TIMER0_DIV_1:
  1089                           
  1090                           
  1091                           ;PIC16F877A_timer0.c: 11:             PSA = 1;
  1092     06D4  1581               	bsf	1,3	;volatile
  1093                           
  1094                           ;PIC16F877A_timer0.c: 12:             PS2 = 0;
  1095     06D5  1101               	bcf	1,2	;volatile
  1096                           
  1097                           ;PIC16F877A_timer0.c: 13:             PS1 = 0;
  1098     06D6  1081               	bcf	1,1	;volatile
  1099                           
  1100                           ;PIC16F877A_timer0.c: 14:             PS0 = 0;
  1101     06D7  1001               	bcf	1,0	;volatile
  1102                           
  1103                           ;PIC16F877A_timer0.c: 15:             break;
  1104     06D8  0008               	return
  1105     06D9                     l315:	
  1106                           ;PIC16F877A_timer0.c: 16:         case TIMER0_DIV_2:
  1107                           
  1108                           
  1109                           ;PIC16F877A_timer0.c: 17:             PS2 = 0;
  1110     06D9  1101               	bcf	1,2	;volatile
  1111                           
  1112                           ;PIC16F877A_timer0.c: 18:             PS1 = 0;
  1113     06DA  1081               	bcf	1,1	;volatile
  1114                           
  1115                           ;PIC16F877A_timer0.c: 19:             PS0 = 0;
  1116     06DB  1001               	bcf	1,0	;volatile
  1117                           
  1118                           ;PIC16F877A_timer0.c: 20:             break;
  1119     06DC  0008               	return
  1120     06DD                     l316:	
  1121                           ;PIC16F877A_timer0.c: 21:         case TIMER0_DIV_4:
  1122                           
  1123                           
  1124                           ;PIC16F877A_timer0.c: 22:             PS2 = 0;
  1125     06DD  1101               	bcf	1,2	;volatile
  1126                           
  1127                           ;PIC16F877A_timer0.c: 23:             PS1 = 0;
  1128     06DE  1081               	bcf	1,1	;volatile
  1129                           
  1130                           ;PIC16F877A_timer0.c: 24:             PS0 = 1;
  1131     06DF  1401               	bsf	1,0	;volatile
  1132                           
  1133                           ;PIC16F877A_timer0.c: 25:             break;
  1134     06E0  0008               	return
  1135     06E1                     l317:	
  1136                           ;PIC16F877A_timer0.c: 26:         case TIMER0_DIV_8:
  1137                           
  1138                           
  1139                           ;PIC16F877A_timer0.c: 27:             PS2 = 0;
  1140     06E1  1101               	bcf	1,2	;volatile
  1141                           
  1142                           ;PIC16F877A_timer0.c: 28:             PS1 = 1;
  1143     06E2  1481               	bsf	1,1	;volatile
  1144                           
  1145                           ;PIC16F877A_timer0.c: 29:             PS0 = 0;
  1146     06E3  1001               	bcf	1,0	;volatile
  1147                           
  1148                           ;PIC16F877A_timer0.c: 30:             break;
  1149     06E4  0008               	return
  1150     06E5                     l318:	
  1151                           ;PIC16F877A_timer0.c: 31:         case TIMER0_DIV_16:
  1152                           
  1153                           
  1154                           ;PIC16F877A_timer0.c: 32:             PS2 = 0;
  1155     06E5  1101               	bcf	1,2	;volatile
  1156                           
  1157                           ;PIC16F877A_timer0.c: 33:             PS1 = 1;
  1158     06E6  1481               	bsf	1,1	;volatile
  1159                           
  1160                           ;PIC16F877A_timer0.c: 34:             PS0 = 1;
  1161     06E7  1401               	bsf	1,0	;volatile
  1162                           
  1163                           ;PIC16F877A_timer0.c: 35:             break;
  1164     06E8  0008               	return
  1165     06E9                     l319:	
  1166                           ;PIC16F877A_timer0.c: 36:         case TIMER0_DIV_32:
  1167                           
  1168                           
  1169                           ;PIC16F877A_timer0.c: 37:             PS2 = 1;
  1170     06E9  1501               	bsf	1,2	;volatile
  1171                           
  1172                           ;PIC16F877A_timer0.c: 38:             PS1 = 0;
  1173     06EA  1081               	bcf	1,1	;volatile
  1174                           
  1175                           ;PIC16F877A_timer0.c: 39:             PS0 = 0;
  1176     06EB  1001               	bcf	1,0	;volatile
  1177                           
  1178                           ;PIC16F877A_timer0.c: 40:             break;
  1179     06EC  0008               	return
  1180     06ED                     l320:	
  1181                           ;PIC16F877A_timer0.c: 41:         case TIMER0_DIV_64:
  1182                           
  1183                           
  1184                           ;PIC16F877A_timer0.c: 42:             PS2 = 1;
  1185     06ED  1501               	bsf	1,2	;volatile
  1186                           
  1187                           ;PIC16F877A_timer0.c: 43:             PS1 = 0;
  1188     06EE  1081               	bcf	1,1	;volatile
  1189                           
  1190                           ;PIC16F877A_timer0.c: 44:             PS0 = 1;
  1191     06EF  1401               	bsf	1,0	;volatile
  1192                           
  1193                           ;PIC16F877A_timer0.c: 45:             break;
  1194     06F0  0008               	return
  1195     06F1                     l321:	
  1196                           ;PIC16F877A_timer0.c: 46:         case TIMER0_DIV_128:
  1197                           
  1198                           
  1199                           ;PIC16F877A_timer0.c: 47:             PS2 = 1;
  1200     06F1  1501               	bsf	1,2	;volatile
  1201                           
  1202                           ;PIC16F877A_timer0.c: 48:             PS1 = 1;
  1203     06F2  1481               	bsf	1,1	;volatile
  1204                           
  1205                           ;PIC16F877A_timer0.c: 49:             PS0 = 0;
  1206     06F3  1001               	bcf	1,0	;volatile
  1207                           
  1208                           ;PIC16F877A_timer0.c: 50:             break;
  1209     06F4  0008               	return
  1210     06F5                     l322:	
  1211                           ;PIC16F877A_timer0.c: 51:         case TIMER0_DIV_256:
  1212                           
  1213                           
  1214                           ;PIC16F877A_timer0.c: 52:             PS2 = 1;
  1215     06F5  1501               	bsf	1,2	;volatile
  1216                           
  1217                           ;PIC16F877A_timer0.c: 53:             PS1 = 1;
  1218     06F6  1481               	bsf	1,1	;volatile
  1219                           
  1220                           ;PIC16F877A_timer0.c: 54:             PS0 = 1;
  1221     06F7  1401               	bsf	1,0	;volatile
  1222                           
  1223                           ;PIC16F877A_timer0.c: 55:             break;
  1224     06F8  0008               	return
  1225     06F9                     l2026:
  1226                           
  1227                           ; Switch on 2 bytes has been partitioned into a top level switch of size 1, and 2 sub-sw
      +                          itches
  1228                           ; Switch size 1, requested type "simple"
  1229                           ; Number of cases is 2, Range of values is 0 to 1
  1230                           ; switch strategies available:
  1231                           ; Name         Instructions Cycles
  1232                           ; simple_byte            7     4 (average)
  1233                           ; direct_byte           14     8 (fixed)
  1234                           ; jumptable            260     6 (fixed)
  1235                           ;	Chosen strategy is simple_byte
  1236     06F9  083A               	movf	(timer0SetPrescaler@prescaler+1)^(0+128),w
  1237     06FA  3A00               	xorlw	0	; case 0
  1238     06FB  1903               	skipnz
  1239     06FC  2F01               	goto	l2240
  1240     06FD  3A01               	xorlw	1	; case 1
  1241     06FE  1903               	skipnz
  1242     06FF  2F1B               	goto	l2242
  1243     0700  2F20               	goto	l323
  1244     0701                     l2240:
  1245                           
  1246                           ; Switch size 1, requested type "simple"
  1247                           ; Number of cases is 8, Range of values is 1 to 128
  1248                           ; switch strategies available:
  1249                           ; Name         Instructions Cycles
  1250                           ; simple_byte           25    13 (average)
  1251                           ; jumptable            263     9 (fixed)
  1252                           ;	Chosen strategy is simple_byte
  1253     0701  0839               	movf	timer0SetPrescaler@prescaler^(0+128),w
  1254     0702  3A01               	xorlw	1	; case 1
  1255     0703  1903               	skipnz
  1256     0704  2ED4               	goto	l313
  1257     0705  3A03               	xorlw	3	; case 2
  1258     0706  1903               	skipnz
  1259     0707  2ED9               	goto	l315
  1260     0708  3A06               	xorlw	6	; case 4
  1261     0709  1903               	skipnz
  1262     070A  2EDD               	goto	l316
  1263     070B  3A0C               	xorlw	12	; case 8
  1264     070C  1903               	skipnz
  1265     070D  2EE1               	goto	l317
  1266     070E  3A18               	xorlw	24	; case 16
  1267     070F  1903               	skipnz
  1268     0710  2EE5               	goto	l318
  1269     0711  3A30               	xorlw	48	; case 32
  1270     0712  1903               	skipnz
  1271     0713  2EE9               	goto	l319
  1272     0714  3A60               	xorlw	96	; case 64
  1273     0715  1903               	skipnz
  1274     0716  2EED               	goto	l320
  1275     0717  3AC0               	xorlw	192	; case 128
  1276     0718  1903               	skipnz
  1277     0719  2EF1               	goto	l321
  1278     071A  2F20               	goto	l323
  1279     071B                     l2242:
  1280                           
  1281                           ; Switch size 1, requested type "simple"
  1282                           ; Number of cases is 1, Range of values is 0 to 0
  1283                           ; switch strategies available:
  1284                           ; Name         Instructions Cycles
  1285                           ; simple_byte            4     3 (average)
  1286                           ; direct_byte           11     8 (fixed)
  1287                           ; jumptable            260     6 (fixed)
  1288                           ;	Chosen strategy is simple_byte
  1289     071B  0839               	movf	timer0SetPrescaler@prescaler^(0+128),w
  1290     071C  3A00               	xorlw	0	; case 0
  1291     071D  1903               	skipnz
  1292     071E  2EF5               	goto	l322
  1293     071F  2F20               	goto	l323
  1294     0720                     l323:
  1295     0720  0008               	return
  1296     0721                     __end_of_timer0SetPrescaler:
  1297                           
  1298                           	psect	text3
  1299     0FF7                     __ptext3:	
  1300 ;; *************** function _hcsr04Init *****************
  1301 ;; Defined at:
  1302 ;;		line 47 in file "PIC16F877A_HCSR04.c"
  1303 ;; Parameters:    Size  Location     Type
  1304 ;;		None
  1305 ;; Auto vars:     Size  Location     Type
  1306 ;;		None
  1307 ;; Return value:  Size  Location     Type
  1308 ;;                  1    wreg      void 
  1309 ;; Registers used:
  1310 ;;		status,2, status,0, pclath, cstack
  1311 ;; Tracked objects:
  1312 ;;		On entry : B00/100
  1313 ;;		On exit  : 300/100
  1314 ;;		Unchanged: 0/0
  1315 ;; Data sizes:     COMMON   BANK0   BANK1   BANK3   BANK2
  1316 ;;      Params:         0       0       0       0       0
  1317 ;;      Locals:         0       0       0       0       0
  1318 ;;      Temps:          0       0       0       0       0
  1319 ;;      Totals:         0       0       0       0       0
  1320 ;;Total ram usage:        0 bytes
  1321 ;; Hardware stack levels used: 1
  1322 ;; Hardware stack levels required when called: 7
  1323 ;; This function calls:
  1324 ;;		_captureRisingInit
  1325 ;;		_trigConfig
  1326 ;; This function is called by:
  1327 ;;		_main
  1328 ;; This function uses a non-reentrant model
  1329 ;;
  1330                           
  1331     0FF7                     _hcsr04Init:	
  1332                           ;psect for function _hcsr04Init
  1333                           
  1334                           
  1335                           ;PIC16F877A_HCSR04.c: 50:     trigConfig();
  1336                           
  1337                           ;incstack = 0
  1338                           ; Regs used in _hcsr04Init: [status,2+status,0+pclath+cstack]
  1339     0FF7  120A  158A  27D7  120A  158A  	fcall	_trigConfig
  1340                           
  1341                           ;PIC16F877A_HCSR04.c: 52:     captureRisingInit();
  1342     0FFC  120A  118A  27BC   	fcall	_captureRisingInit
  1343     0FFF  0008               	return
  1344     1000                     __end_of_hcsr04Init:
  1345                           
  1346                           	psect	text4
  1347     0FD7                     __ptext4:	
  1348 ;; *************** function _trigConfig *****************
  1349 ;; Defined at:
  1350 ;;		line 29 in file "PIC16F877A_HCSR04.c"
  1351 ;; Parameters:    Size  Location     Type
  1352 ;;		None
  1353 ;; Auto vars:     Size  Location     Type
  1354 ;;		None
  1355 ;; Return value:  Size  Location     Type
  1356 ;;                  1    wreg      void 
  1357 ;; Registers used:
  1358 ;;		None
  1359 ;; Tracked objects:
  1360 ;;		On entry : B00/100
  1361 ;;		On exit  : B00/0
  1362 ;;		Unchanged: 800/0
  1363 ;; Data sizes:     COMMON   BANK0   BANK1   BANK3   BANK2
  1364 ;;      Params:         0       0       0       0       0
  1365 ;;      Locals:         0       0       0       0       0
  1366 ;;      Temps:          0       0       0       0       0
  1367 ;;      Totals:         0       0       0       0       0
  1368 ;;Total ram usage:        0 bytes
  1369 ;; Hardware stack levels used: 1
  1370 ;; Hardware stack levels required when called: 5
  1371 ;; This function calls:
  1372 ;;		Nothing
  1373 ;; This function is called by:
  1374 ;;		_hcsr04Init
  1375 ;; This function uses a non-reentrant model
  1376 ;;
  1377                           
  1378     0FD7                     _trigConfig:	
  1379                           ;psect for function _trigConfig
  1380                           
  1381                           
  1382                           ;PIC16F877A_HCSR04.c: 32:     TRISD0 = 0;
  1383                           
  1384                           ;incstack = 0
  1385                           ; Regs used in _trigConfig: []
  1386     0FD7  1008               	bcf	8,0	;volatile
  1387                           
  1388                           ;PIC16F877A_HCSR04.c: 33:     RD0 = 0;
  1389     0FD8  1283               	bcf	3,5	;RP0=0, select bank0
  1390     0FD9  1008               	bcf	8,0	;volatile
  1391     0FDA  0008               	return
  1392     0FDB                     __end_of_trigConfig:
  1393                           
  1394                           	psect	text5
  1395     07BC                     __ptext5:	
  1396 ;; *************** function _captureRisingInit *****************
  1397 ;; Defined at:
  1398 ;;		line 40 in file "PIC16F877A_input_capture.c"
  1399 ;; Parameters:    Size  Location     Type
  1400 ;;		None
  1401 ;; Auto vars:     Size  Location     Type
  1402 ;;		None
  1403 ;; Return value:  Size  Location     Type
  1404 ;;                  1    wreg      void 
  1405 ;; Registers used:
  1406 ;;		status,2, status,0, pclath, cstack
  1407 ;; Tracked objects:
  1408 ;;		On entry : B00/0
  1409 ;;		On exit  : B00/100
  1410 ;;		Unchanged: 800/0
  1411 ;; Data sizes:     COMMON   BANK0   BANK1   BANK3   BANK2
  1412 ;;      Params:         0       0       0       0       0
  1413 ;;      Locals:         0       0       0       0       0
  1414 ;;      Temps:          0       0       0       0       0
  1415 ;;      Totals:         0       0       0       0       0
  1416 ;;Total ram usage:        0 bytes
  1417 ;; Hardware stack levels used: 1
  1418 ;; Hardware stack levels required when called: 6
  1419 ;; This function calls:
  1420 ;;		_ccp1InterruptInit
  1421 ;;		_timer1Init
  1422 ;; This function is called by:
  1423 ;;		_hcsr04Init
  1424 ;; This function uses a non-reentrant model
  1425 ;;
  1426                           
  1427     07BC                     _captureRisingInit:	
  1428                           ;psect for function _captureRisingInit
  1429                           
  1430                           
  1431                           ;PIC16F877A_input_capture.c: 43:     timer1Init();
  1432                           
  1433                           ;incstack = 0
  1434                           ; Regs used in _captureRisingInit: [status,2+status,0+pclath+cstack]
  1435     07BC  120A  158A  27E7  120A  118A  	fcall	_timer1Init
  1436                           
  1437                           ;PIC16F877A_input_capture.c: 45:     TRISC2 = 1;
  1438     07C1  1683               	bsf	3,5	;RP0=1, select bank1
  1439     07C2  1507               	bsf	7,2	;volatile
  1440                           
  1441                           ;PIC16F877A_input_capture.c: 47:     CCP1M3 = 0;
  1442     07C3  1283               	bcf	3,5	;RP0=0, select bank0
  1443     07C4  1197               	bcf	23,3	;volatile
  1444                           
  1445                           ;PIC16F877A_input_capture.c: 48:     CCP1M2 = 1;
  1446     07C5  1517               	bsf	23,2	;volatile
  1447                           
  1448                           ;PIC16F877A_input_capture.c: 49:     CCP1M1 = 0;
  1449     07C6  1097               	bcf	23,1	;volatile
  1450                           
  1451                           ;PIC16F877A_input_capture.c: 50:     CCP1M0 = 1;
  1452     07C7  1417               	bsf	23,0	;volatile
  1453                           
  1454                           ;PIC16F877A_input_capture.c: 52:     ccp1InterruptInit();
  1455     07C8  120A  158A  27E1   	fcall	_ccp1InterruptInit
  1456     07CB  0008               	return
  1457     07CC                     __end_of_captureRisingInit:
  1458                           
  1459                           	psect	text6
  1460     0FE7                     __ptext6:	
  1461 ;; *************** function _timer1Init *****************
  1462 ;; Defined at:
  1463 ;;		line 6 in file "PIC16F877A_input_capture.c"
  1464 ;; Parameters:    Size  Location     Type
  1465 ;;		None
  1466 ;; Auto vars:     Size  Location     Type
  1467 ;;		None
  1468 ;; Return value:  Size  Location     Type
  1469 ;;                  1    wreg      void 
  1470 ;; Registers used:
  1471 ;;		status,2
  1472 ;; Tracked objects:
  1473 ;;		On entry : B00/0
  1474 ;;		On exit  : B00/0
  1475 ;;		Unchanged: 800/0
  1476 ;; Data sizes:     COMMON   BANK0   BANK1   BANK3   BANK2
  1477 ;;      Params:         0       0       0       0       0
  1478 ;;      Locals:         0       0       0       0       0
  1479 ;;      Temps:          0       0       0       0       0
  1480 ;;      Totals:         0       0       0       0       0
  1481 ;;Total ram usage:        0 bytes
  1482 ;; Hardware stack levels used: 1
  1483 ;; Hardware stack levels required when called: 5
  1484 ;; This function calls:
  1485 ;;		Nothing
  1486 ;; This function is called by:
  1487 ;;		_captureRisingInit
  1488 ;; This function uses a non-reentrant model
  1489 ;;
  1490                           
  1491     0FE7                     _timer1Init:	
  1492                           ;psect for function _timer1Init
  1493                           
  1494                           
  1495                           ;PIC16F877A_input_capture.c: 9:     TMR1 = 0;
  1496                           
  1497                           ;incstack = 0
  1498                           ; Regs used in _timer1Init: [status,2]
  1499     0FE7  018E               	clrf	14	;volatile
  1500     0FE8  018F               	clrf	15	;volatile
  1501                           
  1502                           ;PIC16F877A_input_capture.c: 11:     TMR1CS = 0;
  1503     0FE9  1090               	bcf	16,1	;volatile
  1504                           
  1505                           ;PIC16F877A_input_capture.c: 13:     T1CKPS1 = 0;
  1506     0FEA  1290               	bcf	16,5	;volatile
  1507                           
  1508                           ;PIC16F877A_input_capture.c: 14:     T1CKPS0 = 0;
  1509     0FEB  1210               	bcf	16,4	;volatile
  1510                           
  1511                           ;PIC16F877A_input_capture.c: 16:     TMR1ON = 1;
  1512     0FEC  1410               	bsf	16,0	;volatile
  1513     0FED  0008               	return
  1514     0FEE                     __end_of_timer1Init:
  1515                           
  1516                           	psect	text7
  1517     0FE1                     __ptext7:	
  1518 ;; *************** function _ccp1InterruptInit *****************
  1519 ;; Defined at:
  1520 ;;		line 20 in file "PIC16F877A_input_capture.c"
  1521 ;; Parameters:    Size  Location     Type
  1522 ;;		None
  1523 ;; Auto vars:     Size  Location     Type
  1524 ;;		None
  1525 ;; Return value:  Size  Location     Type
  1526 ;;                  1    wreg      void 
  1527 ;; Registers used:
  1528 ;;		None
  1529 ;; Tracked objects:
  1530 ;;		On entry : B00/0
  1531 ;;		On exit  : B00/100
  1532 ;;		Unchanged: 800/0
  1533 ;; Data sizes:     COMMON   BANK0   BANK1   BANK3   BANK2
  1534 ;;      Params:         0       0       0       0       0
  1535 ;;      Locals:         0       0       0       0       0
  1536 ;;      Temps:          0       0       0       0       0
  1537 ;;      Totals:         0       0       0       0       0
  1538 ;;Total ram usage:        0 bytes
  1539 ;; Hardware stack levels used: 1
  1540 ;; Hardware stack levels required when called: 5
  1541 ;; This function calls:
  1542 ;;		Nothing
  1543 ;; This function is called by:
  1544 ;;		_captureRisingInit
  1545 ;; This function uses a non-reentrant model
  1546 ;;
  1547                           
  1548     0FE1                     _ccp1InterruptInit:	
  1549                           ;psect for function _ccp1InterruptInit
  1550                           
  1551                           
  1552                           ;PIC16F877A_input_capture.c: 22:     CCP1IF = 0;
  1553                           
  1554                           ;incstack = 0
  1555                           ; Regs used in _ccp1InterruptInit: []
  1556     0FE1  110C               	bcf	12,2	;volatile
  1557                           
  1558                           ;PIC16F877A_input_capture.c: 24:     CCP1IE = 1;
  1559     0FE2  1683               	bsf	3,5	;RP0=1, select bank1
  1560     0FE3  150C               	bsf	12,2	;volatile
  1561                           
  1562                           ;PIC16F877A_input_capture.c: 26:     PEIE = 1;
  1563     0FE4  170B               	bsf	11,6	;volatile
  1564                           
  1565                           ;PIC16F877A_input_capture.c: 28:     GIE = 1;
  1566     0FE5  178B               	bsf	11,7	;volatile
  1567     0FE6  0008               	return
  1568     0FE7                     __end_of_ccp1InterruptInit:
  1569                           
  1570                           	psect	text8
  1571     07CC                     __ptext8:	
  1572 ;; *************** function _UARTTransInit *****************
  1573 ;; Defined at:
  1574 ;;		line 6 in file "PIC16F877A_UART.c"
  1575 ;; Parameters:    Size  Location     Type
  1576 ;;		None
  1577 ;; Auto vars:     Size  Location     Type
  1578 ;;		None
  1579 ;; Return value:  Size  Location     Type
  1580 ;;                  1    wreg      void 
  1581 ;; Registers used:
  1582 ;;		wreg
  1583 ;; Tracked objects:
  1584 ;;		On entry : 300/100
  1585 ;;		On exit  : 300/100
  1586 ;;		Unchanged: 0/0
  1587 ;; Data sizes:     COMMON   BANK0   BANK1   BANK3   BANK2
  1588 ;;      Params:         0       0       0       0       0
  1589 ;;      Locals:         0       0       0       0       0
  1590 ;;      Temps:          0       0       0       0       0
  1591 ;;      Totals:         0       0       0       0       0
  1592 ;;Total ram usage:        0 bytes
  1593 ;; Hardware stack levels used: 1
  1594 ;; Hardware stack levels required when called: 5
  1595 ;; This function calls:
  1596 ;;		Nothing
  1597 ;; This function is called by:
  1598 ;;		_main
  1599 ;; This function uses a non-reentrant model
  1600 ;;
  1601                           
  1602     07CC                     _UARTTransInit:	
  1603                           ;psect for function _UARTTransInit
  1604                           
  1605                           
  1606                           ;PIC16F877A_UART.c: 9:     TRISC6 = 1;
  1607                           
  1608                           ;incstack = 0
  1609                           ; Regs used in _UARTTransInit: [wreg]
  1610     07CC  1707               	bsf	7,6	;volatile
  1611                           
  1612                           ;PIC16F877A_UART.c: 10:     TRISC7 = 1;
  1613     07CD  1787               	bsf	7,7	;volatile
  1614                           
  1615                           ;PIC16F877A_UART.c: 12:     SPEN = 1;
  1616     07CE  1283               	bcf	3,5	;RP0=0, select bank0
  1617     07CF  1798               	bsf	24,7	;volatile
  1618                           
  1619                           ;PIC16F877A_UART.c: 14:     SYNC = 0;
  1620     07D0  1683               	bsf	3,5	;RP0=1, select bank1
  1621     07D1  1218               	bcf	24,4	;volatile
  1622                           
  1623                           ;PIC16F877A_UART.c: 16:     TX9 = 0;
  1624     07D2  1318               	bcf	24,6	;volatile
  1625                           
  1626                           ;PIC16F877A_UART.c: 18:     TXEN = 1;
  1627     07D3  1698               	bsf	24,5	;volatile
  1628                           
  1629                           ;PIC16F877A_UART.c: 20:     BRGH = 1;
  1630     07D4  1518               	bsf	24,2	;volatile
  1631                           
  1632                           ;PIC16F877A_UART.c: 21:     SPBRG = ((16000000) / 57600) / 16 - 1;
  1633     07D5  3010               	movlw	16
  1634     07D6  0099               	movwf	25	;volatile
  1635     07D7  0008               	return
  1636     07D8                     __end_of_UARTTransInit:
  1637                           
  1638                           	psect	text9
  1639     0793                     __ptext9:	
  1640 ;; *************** function _I2C_Slave_Init *****************
  1641 ;; Defined at:
  1642 ;;		line 73 in file "PIC16F877A_I2C.c"
  1643 ;; Parameters:    Size  Location     Type
  1644 ;;  slave_addres    1    wreg     unsigned char 
  1645 ;; Auto vars:     Size  Location     Type
  1646 ;;  slave_addres    1    0[BANK1 ] unsigned char 
  1647 ;; Return value:  Size  Location     Type
  1648 ;;                  1    wreg      void 
  1649 ;; Registers used:
  1650 ;;		wreg
  1651 ;; Tracked objects:
  1652 ;;		On entry : B00/0
  1653 ;;		On exit  : B00/100
  1654 ;;		Unchanged: 800/0
  1655 ;; Data sizes:     COMMON   BANK0   BANK1   BANK3   BANK2
  1656 ;;      Params:         0       0       0       0       0
  1657 ;;      Locals:         0       0       1       0       0
  1658 ;;      Temps:          0       0       0       0       0
  1659 ;;      Totals:         0       0       1       0       0
  1660 ;;Total ram usage:        1 bytes
  1661 ;; Hardware stack levels used: 1
  1662 ;; Hardware stack levels required when called: 5
  1663 ;; This function calls:
  1664 ;;		Nothing
  1665 ;; This function is called by:
  1666 ;;		_main
  1667 ;; This function uses a non-reentrant model
  1668 ;;
  1669                           
  1670     0793                     _I2C_Slave_Init:	
  1671                           ;psect for function _I2C_Slave_Init
  1672                           
  1673                           
  1674                           ;incstack = 0
  1675                           ; Regs used in _I2C_Slave_Init: [wreg]
  1676                           ;I2C_Slave_Init@slave_address stored from wreg
  1677     0793  1683               	bsf	3,5	;RP0=1, select bank1
  1678     0794  00B9               	movwf	I2C_Slave_Init@slave_address^(0+128)
  1679                           
  1680                           ;PIC16F877A_I2C.c: 73: void I2C_Slave_Init(uint8_t slave_address);PIC16F877A_I2C.c: 74: 
      +                          {;PIC16F877A_I2C.c: 76:     TRISC3 = 1;
  1681     0795  1587               	bsf	7,3	;volatile
  1682                           
  1683                           ;PIC16F877A_I2C.c: 77:     TRISC4 = 1;
  1684     0796  1607               	bsf	7,4	;volatile
  1685                           
  1686                           ;PIC16F877A_I2C.c: 79:     SSPADD = slave_address;
  1687     0797  0839               	movf	I2C_Slave_Init@slave_address^(0+128),w
  1688     0798  0093               	movwf	19	;volatile
  1689                           
  1690                           ;PIC16F877A_I2C.c: 81:     SSPM3 = 0;
  1691     0799  1283               	bcf	3,5	;RP0=0, select bank0
  1692     079A  1194               	bcf	20,3	;volatile
  1693                           
  1694                           ;PIC16F877A_I2C.c: 82:     SSPM2 = 1;
  1695     079B  1514               	bsf	20,2	;volatile
  1696                           
  1697                           ;PIC16F877A_I2C.c: 83:     SSPM1 = 1;
  1698     079C  1494               	bsf	20,1	;volatile
  1699                           
  1700                           ;PIC16F877A_I2C.c: 84:     SSPM0 = 0;
  1701     079D  1014               	bcf	20,0	;volatile
  1702                           
  1703                           ;PIC16F877A_I2C.c: 86:     CKP = 1;
  1704     079E  1614               	bsf	20,4	;volatile
  1705                           
  1706                           ;PIC16F877A_I2C.c: 88:     SSPEN = 1;
  1707     079F  1694               	bsf	20,5	;volatile
  1708                           
  1709                           ;PIC16F877A_I2C.c: 90:     SSPCON2 = 0x01;
  1710     07A0  3001               	movlw	1
  1711     07A1  1683               	bsf	3,5	;RP0=1, select bank1
  1712     07A2  0091               	movwf	17	;volatile
  1713                           
  1714                           ;PIC16F877A_I2C.c: 92:     SSPSTAT = 0x80;
  1715     07A3  3080               	movlw	128
  1716     07A4  0094               	movwf	20	;volatile
  1717                           
  1718                           ;PIC16F877A_I2C.c: 94:     SSPIF = 0;
  1719     07A5  1283               	bcf	3,5	;RP0=0, select bank0
  1720     07A6  118C               	bcf	12,3	;volatile
  1721                           
  1722                           ;PIC16F877A_I2C.c: 95:     SSPIE = 1;
  1723     07A7  1683               	bsf	3,5	;RP0=1, select bank1
  1724     07A8  158C               	bsf	12,3	;volatile
  1725                           
  1726                           ;PIC16F877A_I2C.c: 96:     PEIE = 1;
  1727     07A9  170B               	bsf	11,6	;volatile
  1728                           
  1729                           ;PIC16F877A_I2C.c: 97:     GIE = 1;
  1730     07AA  178B               	bsf	11,7	;volatile
  1731     07AB  0008               	return
  1732     07AC                     __end_of_I2C_Slave_Init:
  1733                           
  1734                           	psect	text10
  1735     0653                     __ptext10:	
  1736 ;; *************** function _ISR *****************
  1737 ;; Defined at:
  1738 ;;		line 18 in file "PIC16F877A_line_follower_robot.c"
  1739 ;; Parameters:    Size  Location     Type
  1740 ;;		None
  1741 ;; Auto vars:     Size  Location     Type
  1742 ;;  dummy           1    0        unsigned char 
  1743 ;;  dummy           1    0        unsigned char 
  1744 ;; Return value:  Size  Location     Type
  1745 ;;                  1    wreg      void 
  1746 ;; Registers used:
  1747 ;;		wreg, status,2, status,0, btemp+1, pclath, cstack
  1748 ;; Tracked objects:
  1749 ;;		On entry : 0/0
  1750 ;;		On exit  : 300/0
  1751 ;;		Unchanged: 0/0
  1752 ;; Data sizes:     COMMON   BANK0   BANK1   BANK3   BANK2
  1753 ;;      Params:         0       0       0       0       0
  1754 ;;      Locals:         0       0       0       0       0
  1755 ;;      Temps:          0       3       0       0       0
  1756 ;;      Totals:         0       3       0       0       0
  1757 ;;Total ram usage:        3 bytes
  1758 ;; Hardware stack levels used: 1
  1759 ;; Hardware stack levels required when called: 4
  1760 ;; This function calls:
  1761 ;;		___flge
  1762 ;;		_getDistance
  1763 ;;		_hcsr04Distance
  1764 ;;		_hcsr04Trigger
  1765 ;; This function is called by:
  1766 ;;		Interrupt level 1
  1767 ;; This function uses a non-reentrant model
  1768 ;;
  1769                           
  1770     0653                     _ISR:	
  1771                           ;psect for function _ISR
  1772                           
  1773                           
  1774                           ;PIC16F877A_line_follower_robot.c: 21:     if(TMR0IF)
  1775     0653  1D0B               	btfss	11,2	;volatile
  1776     0654  2E66               	goto	i1l2152
  1777                           
  1778                           ;PIC16F877A_line_follower_robot.c: 22:     {;PIC16F877A_line_follower_robot.c: 23:      
      +                             TMR0 = 6;
  1779     0655  3006               	movlw	6
  1780     0656  0081               	movwf	1	;volatile
  1781                           
  1782                           ;PIC16F877A_line_follower_robot.c: 24:         if(count++ == 20)
  1783     0657  3001               	movlw	1
  1784     0658  00FF               	movwf	127
  1785     0659  087F               	movf	127,w
  1786     065A  07ED               	addwf	_count,f
  1787     065B  3015               	movlw	21
  1788     065C  066D               	xorwf	_count,w
  1789     065D  1D03               	btfss	3,2
  1790     065E  2E65               	goto	i1l2150
  1791                           
  1792                           ;PIC16F877A_line_follower_robot.c: 25:         {;PIC16F877A_line_follower_robot.c: 26:  
      +                                     count = 0;
  1793     065F  01ED               	clrf	_count
  1794                           
  1795                           ;PIC16F877A_line_follower_robot.c: 27:             hcsr04Trigger();
  1796     0660  120A  118A  27D8  120A  118A  	fcall	_hcsr04Trigger
  1797     0665                     i1l2150:
  1798                           
  1799                           ;PIC16F877A_line_follower_robot.c: 29:         TMR0IF = 0;
  1800     0665  110B               	bcf	11,2	;volatile
  1801     0666                     i1l2152:
  1802                           
  1803                           ;PIC16F877A_line_follower_robot.c: 32:     if(CCP1IF)
  1804     0666  1D0C               	btfss	12,2	;volatile
  1805     0667  2EB3               	goto	i1l2170
  1806                           
  1807                           ;PIC16F877A_line_follower_robot.c: 33:     {;PIC16F877A_line_follower_robot.c: 34:      
      +                             if(hcsr04Distance())
  1808     0668  120A  118A  2721  120A  118A  	fcall	_hcsr04Distance
  1809     066D  3A00               	xorlw	0
  1810     066E  1903               	skipnz
  1811     066F  2EB2               	goto	i1l2168
  1812                           
  1813                           ;PIC16F877A_line_follower_robot.c: 35:         {;PIC16F877A_line_follower_robot.c: 36:  
      +                                     obs_distance = getDistance();
  1814     0670  120A  118A  27EE  120A  118A  	fcall	_getDistance
  1815     0675  0873               	movf	?_getDistance+3,w
  1816     0676  00B2               	movwf	(_obs_distance+3)^(0+128)
  1817     0677  0872               	movf	?_getDistance+2,w
  1818     0678  00B1               	movwf	(_obs_distance+2)^(0+128)
  1819     0679  0871               	movf	?_getDistance+1,w
  1820     067A  00B0               	movwf	(_obs_distance+1)^(0+128)
  1821     067B  0870               	movf	?_getDistance,w
  1822     067C  00AF               	movwf	_obs_distance^(0+128)
  1823                           
  1824                           ;PIC16F877A_line_follower_robot.c: 38:             if(obs_distance > 100)
  1825     067D  3042               	movlw	66
  1826     067E  00F3               	movwf	___flge@ff1+3
  1827     067F  30C8               	movlw	200
  1828     0680  00F2               	movwf	___flge@ff1+2
  1829     0681  3000               	movlw	0
  1830     0682  00F1               	movwf	___flge@ff1+1
  1831     0683  3000               	movlw	0
  1832     0684  00F0               	movwf	___flge@ff1
  1833     0685  0832               	movf	(_obs_distance+3)^(0+128),w
  1834     0686  00F7               	movwf	___flge@ff2+3
  1835     0687  0831               	movf	(_obs_distance+2)^(0+128),w
  1836     0688  00F6               	movwf	___flge@ff2+2
  1837     0689  0830               	movf	(_obs_distance+1)^(0+128),w
  1838     068A  00F5               	movwf	___flge@ff2+1
  1839     068B  082F               	movf	_obs_distance^(0+128),w
  1840     068C  00F4               	movwf	___flge@ff2
  1841     068D  120A  118A  253D  120A  118A  	fcall	___flge
  1842     0692  1803               	btfsc	3,0
  1843     0693  2E96               	goto	i1l2162
  1844                           
  1845                           ;PIC16F877A_line_follower_robot.c: 39:                 distance_command = 'a';
  1846     0694  3061               	movlw	97
  1847     0695  2EB0               	goto	L1
  1848     0696                     i1l2162:
  1849     0696  0832               	movf	(_obs_distance+3)^(0+128),w
  1850     0697  00F3               	movwf	___flge@ff1+3
  1851     0698  0831               	movf	(_obs_distance+2)^(0+128),w
  1852     0699  00F2               	movwf	___flge@ff1+2
  1853     069A  0830               	movf	(_obs_distance+1)^(0+128),w
  1854     069B  00F1               	movwf	___flge@ff1+1
  1855     069C  082F               	movf	_obs_distance^(0+128),w
  1856     069D  00F0               	movwf	___flge@ff1
  1857     069E  3042               	movlw	66
  1858     069F  00F7               	movwf	___flge@ff2+3
  1859     06A0  3048               	movlw	72
  1860     06A1  00F6               	movwf	___flge@ff2+2
  1861     06A2  3000               	movlw	0
  1862     06A3  00F5               	movwf	___flge@ff2+1
  1863     06A4  3000               	movlw	0
  1864     06A5  00F4               	movwf	___flge@ff2
  1865     06A6  120A  118A  253D  120A  118A  	fcall	___flge
  1866     06AB  1803               	btfsc	3,0
  1867     06AC  2EAF               	goto	i1l2166
  1868                           
  1869                           ;PIC16F877A_line_follower_robot.c: 41:                 distance_command = 'c';
  1870     06AD  3063               	movlw	99
  1871     06AE  2EB0               	goto	L1
  1872     06AF                     i1l2166:
  1873                           
  1874                           ;PIC16F877A_line_follower_robot.c: 43:                 distance_command = 'b';
  1875     06AF  3062               	movlw	98
  1876     06B0                     L1:
  1877     06B0  1283               	bcf	3,5	;RP0=0, select bank0
  1878     06B1  00EF               	movwf	_distance_command
  1879     06B2                     i1l2168:
  1880                           
  1881                           ;PIC16F877A_line_follower_robot.c: 45:         CCP1IF = 0;
  1882     06B2  110C               	bcf	12,2	;volatile
  1883     06B3                     i1l2170:
  1884                           
  1885                           ;PIC16F877A_line_follower_robot.c: 48:     if(SSPIF)
  1886     06B3  1D8C               	btfss	12,3	;volatile
  1887     06B4  2ECA               	goto	i1l110
  1888                           
  1889                           ;PIC16F877A_line_follower_robot.c: 49:     {;PIC16F877A_line_follower_robot.c: 51:      
      +                             if(WCOL || SSPOV)
  1890     06B5  1B94               	btfsc	20,7	;volatile
  1891     06B6  2EB9               	goto	i1l2176
  1892     06B7  1F14               	btfss	20,6	;volatile
  1893     06B8  2EBD               	goto	i1l2184
  1894     06B9                     i1l2176:
  1895     06B9  0813               	movf	19,w	;volatile
  1896                           
  1897                           ;PIC16F877A_line_follower_robot.c: 56:             WCOL = 0;
  1898     06BA  1394               	bcf	20,7	;volatile
  1899                           
  1900                           ;PIC16F877A_line_follower_robot.c: 57:             SSPOV = 0;
  1901     06BB  1314               	bcf	20,6	;volatile
  1902                           
  1903                           ;PIC16F877A_line_follower_robot.c: 59:             SSPCONbits.CKP = 1;
  1904     06BC  1614               	bsf	20,4	;volatile
  1905     06BD                     i1l2184:
  1906                           
  1907                           ;PIC16F877A_line_follower_robot.c: 62:         if(R_nW)
  1908     06BD  1683               	bsf	3,5	;RP0=1, select bank1
  1909     06BE  1D14               	btfss	20,2	;volatile
  1910     06BF  2EC8               	goto	i1l106
  1911     06C0  1283               	bcf	3,5	;RP0=0, select bank0
  1912     06C1  0813               	movf	19,w	;volatile
  1913                           
  1914                           ;PIC16F877A_line_follower_robot.c: 67:             SSPBUF = distance_command;
  1915     06C2  086F               	movf	_distance_command,w
  1916     06C3  0093               	movwf	19	;volatile
  1917                           
  1918                           ;PIC16F877A_line_follower_robot.c: 69:             SSPCONbits.CKP = 1;
  1919     06C4  1614               	bsf	20,4	;volatile
  1920     06C5                     i1l107:	
  1921                           ;PIC16F877A_line_follower_robot.c: 71:             while(SSPSTATbits.BF);
  1922                           
  1923     06C5  1683               	bsf	3,5	;RP0=1, select bank1
  1924     06C6  1814               	btfsc	20,0	;volatile
  1925     06C7  2EC5               	goto	i1l107
  1926     06C8                     i1l106:	
  1927                           ;PIC16F877A_line_follower_robot.c: 72:         }
  1928                           
  1929                           
  1930                           ;PIC16F877A_line_follower_robot.c: 73:         SSPIF = 0;
  1931     06C8  1283               	bcf	3,5	;RP0=0, select bank0
  1932     06C9  118C               	bcf	12,3	;volatile
  1933     06CA                     i1l110:
  1934     06CA  0866               	movf	??_ISR+2,w
  1935     06CB  00FF               	movwf	127
  1936     06CC  0865               	movf	??_ISR+1,w
  1937     06CD  008A               	movwf	10
  1938     06CE  0E64               	swapf	??_ISR,w
  1939     06CF  0083               	movwf	3
  1940     06D0  0EFE               	swapf	126,f
  1941     06D1  0E7E               	swapf	126,w
  1942     06D2  0009               	retfie
  1943     06D3                     __end_of_ISR:
  1944                           
  1945                           	psect	intentry
  1946     0004                     __pintentry:	
  1947                           ;incstack = 0
  1948                           ; Regs used in _ISR: [wreg+status,2+status,0+btemp+1+pclath+cstack]
  1949                           
  1950     0004                     interrupt_function:
  1951     007E                     saved_w	set	btemp
  1952     0004  00FE               	movwf	btemp
  1953     0005  0E03               	swapf	3,w
  1954     0006  1283               	bcf	3,5	;RP0=0, select bank0
  1955     0007  1303               	bcf	3,6	;RP1=0, select bank0
  1956     0008  00E4               	movwf	??_ISR
  1957     0009  080A               	movf	10,w
  1958     000A  00E5               	movwf	??_ISR+1
  1959     000B  087F               	movf	btemp+1,w
  1960     000C  00E6               	movwf	??_ISR+2
  1961     000D  120A  118A  2E53   	ljmp	_ISR
  1962                           
  1963                           	psect	text11
  1964     07D8                     __ptext11:	
  1965 ;; *************** function _hcsr04Trigger *****************
  1966 ;; Defined at:
  1967 ;;		line 56 in file "PIC16F877A_HCSR04.c"
  1968 ;; Parameters:    Size  Location     Type
  1969 ;;		None
  1970 ;; Auto vars:     Size  Location     Type
  1971 ;;		None
  1972 ;; Return value:  Size  Location     Type
  1973 ;;                  1    wreg      void 
  1974 ;; Registers used:
  1975 ;;		wreg, status,2
  1976 ;; Tracked objects:
  1977 ;;		On entry : 300/0
  1978 ;;		On exit  : 300/0
  1979 ;;		Unchanged: 0/0
  1980 ;; Data sizes:     COMMON   BANK0   BANK1   BANK3   BANK2
  1981 ;;      Params:         0       0       0       0       0
  1982 ;;      Locals:         0       0       0       0       0
  1983 ;;      Temps:          1       0       0       0       0
  1984 ;;      Totals:         1       0       0       0       0
  1985 ;;Total ram usage:        1 bytes
  1986 ;; Hardware stack levels used: 1
  1987 ;; This function calls:
  1988 ;;		Nothing
  1989 ;; This function is called by:
  1990 ;;		_ISR
  1991 ;; This function uses a non-reentrant model
  1992 ;;
  1993                           
  1994     07D8                     _hcsr04Trigger:	
  1995                           ;psect for function _hcsr04Trigger
  1996                           
  1997                           
  1998                           ;PIC16F877A_HCSR04.c: 58:     RD0 = 1;
  1999                           
  2000                           ;incstack = 0
  2001                           ; Regs used in _hcsr04Trigger: [wreg+status,2]
  2002     07D8  1408               	bsf	8,0	;volatile
  2003                           
  2004                           ;PIC16F877A_HCSR04.c: 59:     _delay((unsigned long)((10)*(16000000/4000000.0)));
  2005     07D9  300D               	movlw	13
  2006     07DA  00F0               	movwf	??_hcsr04Trigger
  2007     07DB                     u205_27:
  2008     07DB  0BF0               	decfsz	??_hcsr04Trigger,f
  2009     07DC  2FDB               	goto	u205_27
  2010                           
  2011                           ;PIC16F877A_HCSR04.c: 60:     RD0 = 0;
  2012     07DD  1283               	bcf	3,5	;RP0=0, select bank0
  2013     07DE  1303               	bcf	3,6	;RP1=0, select bank0
  2014     07DF  1008               	bcf	8,0	;volatile
  2015                           
  2016                           ;PIC16F877A_HCSR04.c: 62:     TMR1 = 0;
  2017     07E0  018E               	clrf	14	;volatile
  2018     07E1  018F               	clrf	15	;volatile
  2019     07E2  0008               	return
  2020     07E3                     __end_of_hcsr04Trigger:
  2021                           
  2022                           	psect	text12
  2023     0721                     __ptext12:	
  2024 ;; *************** function _hcsr04Distance *****************
  2025 ;; Defined at:
  2026 ;;		line 66 in file "PIC16F877A_HCSR04.c"
  2027 ;; Parameters:    Size  Location     Type
  2028 ;;		None
  2029 ;; Auto vars:     Size  Location     Type
  2030 ;;		None
  2031 ;; Return value:  Size  Location     Type
  2032 ;;                  1    wreg      unsigned char 
  2033 ;; Registers used:
  2034 ;;		wreg, status,2, status,0, btemp+1, pclath, cstack
  2035 ;; Tracked objects:
  2036 ;;		On entry : 300/0
  2037 ;;		On exit  : 300/0
  2038 ;;		Unchanged: 0/0
  2039 ;; Data sizes:     COMMON   BANK0   BANK1   BANK3   BANK2
  2040 ;;      Params:         0       0       0       0       0
  2041 ;;      Locals:         0       0       0       0       0
  2042 ;;      Temps:          0       0       0       0       0
  2043 ;;      Totals:         0       0       0       0       0
  2044 ;;Total ram usage:        0 bytes
  2045 ;; Hardware stack levels used: 1
  2046 ;; Hardware stack levels required when called: 3
  2047 ;; This function calls:
  2048 ;;		_calDistance
  2049 ;;		_changeModeFalling
  2050 ;;		_changeModeRising
  2051 ;; This function is called by:
  2052 ;;		_ISR
  2053 ;; This function uses a non-reentrant model
  2054 ;;
  2055                           
  2056     0721                     _hcsr04Distance:	
  2057                           ;psect for function _hcsr04Distance
  2058                           
  2059                           
  2060                           ;PIC16F877A_HCSR04.c: 68:     if (hcsr04_state == IDLE)
  2061                           
  2062                           ;incstack = 0
  2063                           ; Regs used in _hcsr04Distance: [wreg+status,2+status,0+btemp+1+pclath+cstack]
  2064     0721  086E               	movf	_hcsr04_state,w
  2065     0722  1D03               	btfss	3,2
  2066     0723  2F30               	goto	i1l2060
  2067                           
  2068                           ;PIC16F877A_HCSR04.c: 69:     {;PIC16F877A_HCSR04.c: 70:         riseT1 = CCPR1;
  2069     0724  0816               	movf	22,w	;volatile
  2070     0725  00EC               	movwf	_riseT1+1
  2071     0726  0815               	movf	21,w	;volatile
  2072     0727  00EB               	movwf	_riseT1
  2073                           
  2074                           ;PIC16F877A_HCSR04.c: 72:         changeModeFalling();
  2075     0728  120A  158A  27EE   	fcall	_changeModeFalling
  2076                           
  2077                           ;PIC16F877A_HCSR04.c: 73:         hcsr04_state = DONE;
  2078     072B  1283               	bcf	3,5	;RP0=0, select bank0
  2079     072C  01EE               	clrf	_hcsr04_state
  2080     072D  0AEE               	incf	_hcsr04_state,f
  2081                           
  2082                           ;PIC16F877A_HCSR04.c: 74:         return IDLE;
  2083     072E  3000               	movlw	0
  2084     072F  0008               	return
  2085     0730                     i1l2060:
  2086     0730  036E               	decf	_hcsr04_state,w
  2087     0731  1D03               	btfss	3,2
  2088     0732  2F50               	goto	i1l2070
  2089                           
  2090                           ;PIC16F877A_HCSR04.c: 77:     {;PIC16F877A_HCSR04.c: 78:         fallT2 = CCPR1;
  2091     0733  0816               	movf	22,w	;volatile
  2092     0734  00EA               	movwf	_fallT2+1
  2093     0735  0815               	movf	21,w	;volatile
  2094     0736  00E9               	movwf	_fallT2
  2095                           
  2096                           ;PIC16F877A_HCSR04.c: 79:         hcsr04_distance = calDistance();
  2097     0737  120A  118A  25D0  120A  118A  	fcall	_calDistance
  2098     073C  0857               	movf	?_calDistance+3,w
  2099     073D  1683               	bsf	3,5	;RP0=1, select bank1
  2100     073E  00B6               	movwf	(_hcsr04_distance+3)^(0+128)
  2101     073F  1283               	bcf	3,5	;RP0=0, select bank0
  2102     0740  0856               	movf	?_calDistance+2,w
  2103     0741  1683               	bsf	3,5	;RP0=1, select bank1
  2104     0742  00B5               	movwf	(_hcsr04_distance+2)^(0+128)
  2105     0743  1283               	bcf	3,5	;RP0=0, select bank0
  2106     0744  0855               	movf	?_calDistance+1,w
  2107     0745  1683               	bsf	3,5	;RP0=1, select bank1
  2108     0746  00B4               	movwf	(_hcsr04_distance+1)^(0+128)
  2109     0747  1283               	bcf	3,5	;RP0=0, select bank0
  2110     0748  0854               	movf	?_calDistance,w
  2111     0749  1683               	bsf	3,5	;RP0=1, select bank1
  2112     074A  00B3               	movwf	_hcsr04_distance^(0+128)
  2113                           
  2114                           ;PIC16F877A_HCSR04.c: 81:         changeModeRising();
  2115     074B  120A  118A  27E3   	fcall	_changeModeRising
  2116                           
  2117                           ;PIC16F877A_HCSR04.c: 82:         hcsr04_state = IDLE;
  2118     074E  1283               	bcf	3,5	;RP0=0, select bank0
  2119     074F  01EE               	clrf	_hcsr04_state
  2120     0750                     i1l2070:
  2121                           
  2122                           ;PIC16F877A_HCSR04.c: 84:     return DONE;
  2123     0750  3001               	movlw	1
  2124     0751  0008               	return
  2125     0752                     __end_of_hcsr04Distance:
  2126                           
  2127                           	psect	text13
  2128     07E3                     __ptext13:	
  2129 ;; *************** function _changeModeRising *****************
  2130 ;; Defined at:
  2131 ;;		line 85 in file "PIC16F877A_input_capture.c"
  2132 ;; Parameters:    Size  Location     Type
  2133 ;;		None
  2134 ;; Auto vars:     Size  Location     Type
  2135 ;;		None
  2136 ;; Return value:  Size  Location     Type
  2137 ;;                  1    wreg      void 
  2138 ;; Registers used:
  2139 ;;		wreg, status,2, status,0, btemp+1, pclath, cstack
  2140 ;; Tracked objects:
  2141 ;;		On entry : 300/100
  2142 ;;		On exit  : 300/100
  2143 ;;		Unchanged: 0/0
  2144 ;; Data sizes:     COMMON   BANK0   BANK1   BANK3   BANK2
  2145 ;;      Params:         0       0       0       0       0
  2146 ;;      Locals:         0       0       0       0       0
  2147 ;;      Temps:          0       0       0       0       0
  2148 ;;      Totals:         0       0       0       0       0
  2149 ;;Total ram usage:        0 bytes
  2150 ;; Hardware stack levels used: 1
  2151 ;; Hardware stack levels required when called: 1
  2152 ;; This function calls:
  2153 ;;		_disableCCP1
  2154 ;; This function is called by:
  2155 ;;		_hcsr04Distance
  2156 ;; This function uses a non-reentrant model
  2157 ;;
  2158                           
  2159     07E3                     _changeModeRising:	
  2160                           ;psect for function _changeModeRising
  2161                           
  2162                           
  2163                           ;PIC16F877A_input_capture.c: 88:     CCP1IE = 0;
  2164                           
  2165                           ;incstack = 0
  2166                           ; Regs used in _changeModeRising: [wreg+status,2+status,0+btemp+1+pclath+cstack]
  2167     07E3  110C               	bcf	12,2	;volatile
  2168                           
  2169                           ;PIC16F877A_input_capture.c: 90:     disableCCP1();
  2170     07E4  120A  158A  27DB   	fcall	_disableCCP1
  2171                           
  2172                           ;PIC16F877A_input_capture.c: 92:     CCP1CON |= 0b00000101;
  2173     07E7  3005               	movlw	5
  2174     07E8  00FF               	movwf	127
  2175     07E9  087F               	movf	127,w
  2176     07EA  0497               	iorwf	23,f	;volatile
  2177                           
  2178                           ;PIC16F877A_input_capture.c: 94:     CCP1IE = 1;
  2179     07EB  1683               	bsf	3,5	;RP0=1, select bank1
  2180     07EC  150C               	bsf	12,2	;volatile
  2181     07ED  0008               	return
  2182     07EE                     __end_of_changeModeRising:
  2183                           
  2184                           	psect	text14
  2185     0FEE                     __ptext14:	
  2186 ;; *************** function _changeModeFalling *****************
  2187 ;; Defined at:
  2188 ;;		line 72 in file "PIC16F877A_input_capture.c"
  2189 ;; Parameters:    Size  Location     Type
  2190 ;;		None
  2191 ;; Auto vars:     Size  Location     Type
  2192 ;;		None
  2193 ;; Return value:  Size  Location     Type
  2194 ;;                  1    wreg      void 
  2195 ;; Registers used:
  2196 ;;		wreg, status,2, status,0, btemp+1, pclath, cstack
  2197 ;; Tracked objects:
  2198 ;;		On entry : 300/0
  2199 ;;		On exit  : 300/100
  2200 ;;		Unchanged: 0/0
  2201 ;; Data sizes:     COMMON   BANK0   BANK1   BANK3   BANK2
  2202 ;;      Params:         0       0       0       0       0
  2203 ;;      Locals:         0       0       0       0       0
  2204 ;;      Temps:          0       0       0       0       0
  2205 ;;      Totals:         0       0       0       0       0
  2206 ;;Total ram usage:        0 bytes
  2207 ;; Hardware stack levels used: 1
  2208 ;; Hardware stack levels required when called: 1
  2209 ;; This function calls:
  2210 ;;		_disableCCP1
  2211 ;; This function is called by:
  2212 ;;		_hcsr04Distance
  2213 ;; This function uses a non-reentrant model
  2214 ;;
  2215                           
  2216     0FEE                     _changeModeFalling:	
  2217                           ;psect for function _changeModeFalling
  2218                           
  2219                           
  2220                           ;PIC16F877A_input_capture.c: 75:     CCP1IE = 0;
  2221                           
  2222                           ;incstack = 0
  2223                           ; Regs used in _changeModeFalling: [wreg+status,2+status,0+btemp+1+pclath+cstack]
  2224     0FEE  1683               	bsf	3,5	;RP0=1, select bank1
  2225     0FEF  110C               	bcf	12,2	;volatile
  2226                           
  2227                           ;PIC16F877A_input_capture.c: 77:     disableCCP1();
  2228     0FF0  120A  158A  27DB   	fcall	_disableCCP1
  2229                           
  2230                           ;PIC16F877A_input_capture.c: 79:     CCP1CON |= 0b00000100;
  2231     0FF3  1517               	bsf	23,2	;volatile
  2232                           
  2233                           ;PIC16F877A_input_capture.c: 81:     CCP1IE = 1;
  2234     0FF4  1683               	bsf	3,5	;RP0=1, select bank1
  2235     0FF5  150C               	bsf	12,2	;volatile
  2236     0FF6  0008               	return
  2237     0FF7                     __end_of_changeModeFalling:
  2238                           
  2239                           	psect	text15
  2240     0FDB                     __ptext15:	
  2241 ;; *************** function _disableCCP1 *****************
  2242 ;; Defined at:
  2243 ;;		line 32 in file "PIC16F877A_input_capture.c"
  2244 ;; Parameters:    Size  Location     Type
  2245 ;;		None
  2246 ;; Auto vars:     Size  Location     Type
  2247 ;;		None
  2248 ;; Return value:  Size  Location     Type
  2249 ;;                  1    wreg      void 
  2250 ;; Registers used:
  2251 ;;		wreg, status,2, status,0, btemp+1
  2252 ;; Tracked objects:
  2253 ;;		On entry : 300/100
  2254 ;;		On exit  : 300/0
  2255 ;;		Unchanged: 0/0
  2256 ;; Data sizes:     COMMON   BANK0   BANK1   BANK3   BANK2
  2257 ;;      Params:         0       0       0       0       0
  2258 ;;      Locals:         0       0       0       0       0
  2259 ;;      Temps:          0       0       0       0       0
  2260 ;;      Totals:         0       0       0       0       0
  2261 ;;Total ram usage:        0 bytes
  2262 ;; Hardware stack levels used: 1
  2263 ;; This function calls:
  2264 ;;		Nothing
  2265 ;; This function is called by:
  2266 ;;		_changeModeFalling
  2267 ;;		_changeModeRising
  2268 ;; This function uses a non-reentrant model
  2269 ;;
  2270                           
  2271     0FDB                     _disableCCP1:	
  2272                           ;psect for function _disableCCP1
  2273                           
  2274                           
  2275                           ;PIC16F877A_input_capture.c: 34:     CCP1CON &= 0b11110000;
  2276                           
  2277                           ;incstack = 0
  2278                           ; Regs used in _disableCCP1: [wreg+status,2+status,0+btemp+1]
  2279     0FDB  30F0               	movlw	240
  2280     0FDC  00FF               	movwf	127
  2281     0FDD  087F               	movf	127,w
  2282     0FDE  1283               	bcf	3,5	;RP0=0, select bank0
  2283     0FDF  0597               	andwf	23,f	;volatile
  2284     0FE0  0008               	return
  2285     0FE1                     __end_of_disableCCP1:
  2286                           
  2287                           	psect	text16
  2288     05D0                     __ptext16:	
  2289 ;; *************** function _calDistance *****************
  2290 ;; Defined at:
  2291 ;;		line 37 in file "PIC16F877A_HCSR04.c"
  2292 ;; Parameters:    Size  Location     Type
  2293 ;;		None
  2294 ;; Auto vars:     Size  Location     Type
  2295 ;;  distance        4   60[BANK0 ] float 
  2296 ;;  time            4   56[BANK0 ] float 
  2297 ;; Return value:  Size  Location     Type
  2298 ;;                  4   52[BANK0 ] float 
  2299 ;; Registers used:
  2300 ;;		wreg, status,2, status,0, btemp+1, pclath, cstack
  2301 ;; Tracked objects:
  2302 ;;		On entry : 300/0
  2303 ;;		On exit  : 300/0
  2304 ;;		Unchanged: 0/0
  2305 ;; Data sizes:     COMMON   BANK0   BANK1   BANK3   BANK2
  2306 ;;      Params:         0       4       0       0       0
  2307 ;;      Locals:         0      12       0       0       0
  2308 ;;      Temps:          0       0       0       0       0
  2309 ;;      Totals:         0      16       0       0       0
  2310 ;;Total ram usage:       16 bytes
  2311 ;; Hardware stack levels used: 1
  2312 ;; Hardware stack levels required when called: 2
  2313 ;; This function calls:
  2314 ;;		___fldiv
  2315 ;;		___flmul
  2316 ;;		___xxtofl
  2317 ;; This function is called by:
  2318 ;;		_hcsr04Distance
  2319 ;; This function uses a non-reentrant model
  2320 ;;
  2321                           
  2322     05D0                     _calDistance:	
  2323                           ;psect for function _calDistance
  2324                           
  2325                           
  2326                           ;PIC16F877A_HCSR04.c: 39:     float time = ((fallT2 - riseT1) / 2.0) / 16000000 * 4;
  2327                           
  2328                           ;incstack = 0
  2329                           ; Regs used in _calDistance: [wreg+status,2+status,0+btemp+1+pclath+cstack]
  2330     05D0  3040               	movlw	64
  2331     05D1  00A3               	movwf	___fldiv@a+3
  2332     05D2  3000               	movlw	0
  2333     05D3  00A2               	movwf	___fldiv@a+2
  2334     05D4  3000               	movlw	0
  2335     05D5  00A1               	movwf	___fldiv@a+1
  2336     05D6  3000               	movlw	0
  2337     05D7  00A0               	movwf	___fldiv@a
  2338     05D8  086B               	movf	_riseT1,w
  2339     05D9  0269               	subwf	_fallT2,w
  2340     05DA  00F0               	movwf	___xxtofl@val
  2341     05DB  086C               	movf	_riseT1+1,w
  2342     05DC  1C03               	skipc
  2343     05DD  0A6C               	incf	_riseT1+1,w
  2344     05DE  026A               	subwf	_fallT2+1,w
  2345     05DF  00F1               	movwf	___xxtofl@val+1
  2346     05E0  01F2               	clrf	___xxtofl@val+2
  2347     05E1  01F3               	clrf	___xxtofl@val+3
  2348     05E2  3000               	movlw	0
  2349     05E3  120A  118A  249C  120A  118A  	fcall	___xxtofl
  2350     05E8  0873               	movf	?___xxtofl+3,w
  2351     05E9  00A7               	movwf	___fldiv@b+3
  2352     05EA  0872               	movf	?___xxtofl+2,w
  2353     05EB  00A6               	movwf	___fldiv@b+2
  2354     05EC  0871               	movf	?___xxtofl+1,w
  2355     05ED  00A5               	movwf	___fldiv@b+1
  2356     05EE  0870               	movf	?___xxtofl,w
  2357     05EF  00A4               	movwf	___fldiv@b
  2358     05F0  120A  118A  2305  120A  118A  	fcall	___fldiv
  2359     05F5  0823               	movf	?___fldiv+3,w
  2360     05F6  00E3               	movwf	_calDistance$1078+3
  2361     05F7  0822               	movf	?___fldiv+2,w
  2362     05F8  00E2               	movwf	_calDistance$1078+2
  2363     05F9  0821               	movf	?___fldiv+1,w
  2364     05FA  00E1               	movwf	_calDistance$1078+1
  2365     05FB  0820               	movf	?___fldiv,w
  2366     05FC  00E0               	movwf	_calDistance$1078
  2367                           
  2368                           ;PIC16F877A_HCSR04.c: 39:     float time = ((fallT2 - riseT1) / 2.0) / 16000000 * 4;
  2369     05FD  3040               	movlw	64
  2370     05FE  00BD               	movwf	___flmul@b+3
  2371     05FF  3080               	movlw	128
  2372     0600  00BC               	movwf	___flmul@b+2
  2373     0601  3000               	movlw	0
  2374     0602  00BB               	movwf	___flmul@b+1
  2375     0603  3000               	movlw	0
  2376     0604  00BA               	movwf	___flmul@b
  2377     0605  304B               	movlw	75
  2378     0606  00A3               	movwf	___fldiv@a+3
  2379     0607  3074               	movlw	116
  2380     0608  00A2               	movwf	___fldiv@a+2
  2381     0609  3024               	movlw	36
  2382     060A  00A1               	movwf	___fldiv@a+1
  2383     060B  3000               	movlw	0
  2384     060C  00A0               	movwf	___fldiv@a
  2385     060D  0863               	movf	_calDistance$1078+3,w
  2386     060E  00A7               	movwf	___fldiv@b+3
  2387     060F  0862               	movf	_calDistance$1078+2,w
  2388     0610  00A6               	movwf	___fldiv@b+2
  2389     0611  0861               	movf	_calDistance$1078+1,w
  2390     0612  00A5               	movwf	___fldiv@b+1
  2391     0613  0860               	movf	_calDistance$1078,w
  2392     0614  00A4               	movwf	___fldiv@b
  2393     0615  120A  118A  2305  120A  118A  	fcall	___fldiv
  2394     061A  0823               	movf	?___fldiv+3,w
  2395     061B  00C1               	movwf	___flmul@a+3
  2396     061C  0822               	movf	?___fldiv+2,w
  2397     061D  00C0               	movwf	___flmul@a+2
  2398     061E  0821               	movf	?___fldiv+1,w
  2399     061F  00BF               	movwf	___flmul@a+1
  2400     0620  0820               	movf	?___fldiv,w
  2401     0621  00BE               	movwf	___flmul@a
  2402     0622  120A  118A  202C  120A  118A  	fcall	___flmul
  2403     0627  083D               	movf	?___flmul+3,w
  2404     0628  00DB               	movwf	calDistance@time+3
  2405     0629  083C               	movf	?___flmul+2,w
  2406     062A  00DA               	movwf	calDistance@time+2
  2407     062B  083B               	movf	?___flmul+1,w
  2408     062C  00D9               	movwf	calDistance@time+1
  2409     062D  083A               	movf	?___flmul,w
  2410     062E  00D8               	movwf	calDistance@time
  2411                           
  2412                           ;PIC16F877A_HCSR04.c: 40:     float distance = 34000 * time;
  2413     062F  3047               	movlw	71
  2414     0630  00BD               	movwf	___flmul@b+3
  2415     0631  3004               	movlw	4
  2416     0632  00BC               	movwf	___flmul@b+2
  2417     0633  30D0               	movlw	208
  2418     0634  00BB               	movwf	___flmul@b+1
  2419     0635  3000               	movlw	0
  2420     0636  00BA               	movwf	___flmul@b
  2421     0637  085B               	movf	calDistance@time+3,w
  2422     0638  00C1               	movwf	___flmul@a+3
  2423     0639  085A               	movf	calDistance@time+2,w
  2424     063A  00C0               	movwf	___flmul@a+2
  2425     063B  0859               	movf	calDistance@time+1,w
  2426     063C  00BF               	movwf	___flmul@a+1
  2427     063D  0858               	movf	calDistance@time,w
  2428     063E  00BE               	movwf	___flmul@a
  2429     063F  120A  118A  202C   	fcall	___flmul
  2430     0642  083D               	movf	?___flmul+3,w
  2431     0643  00DF               	movwf	calDistance@distance+3
  2432     0644  083C               	movf	?___flmul+2,w
  2433     0645  00DE               	movwf	calDistance@distance+2
  2434     0646  083B               	movf	?___flmul+1,w
  2435     0647  00DD               	movwf	calDistance@distance+1
  2436     0648  083A               	movf	?___flmul,w
  2437     0649  00DC               	movwf	calDistance@distance
  2438                           
  2439                           ;PIC16F877A_HCSR04.c: 41:     return distance;
  2440     064A  085F               	movf	calDistance@distance+3,w
  2441     064B  00D7               	movwf	?_calDistance+3
  2442     064C  085E               	movf	calDistance@distance+2,w
  2443     064D  00D6               	movwf	?_calDistance+2
  2444     064E  085D               	movf	calDistance@distance+1,w
  2445     064F  00D5               	movwf	?_calDistance+1
  2446     0650  085C               	movf	calDistance@distance,w
  2447     0651  00D4               	movwf	?_calDistance
  2448     0652  0008               	return
  2449     0653                     __end_of_calDistance:
  2450                           
  2451                           	psect	text17
  2452     049C                     __ptext17:	
  2453 ;; *************** function ___xxtofl *****************
  2454 ;; Defined at:
  2455 ;;		line 10 in file "C:\Program Files\Microchip\xc8\v2.41\pic\sources\c90\common\xxtofl.c"
  2456 ;; Parameters:    Size  Location     Type
  2457 ;;  sign            1    wreg     unsigned char 
  2458 ;;  val             4    0[COMMON] long 
  2459 ;; Auto vars:     Size  Location     Type
  2460 ;;  sign            1    8[COMMON] unsigned char 
  2461 ;;  arg             4   10[COMMON] unsigned long 
  2462 ;;  exp             1    9[COMMON] unsigned char 
  2463 ;; Return value:  Size  Location     Type
  2464 ;;                  4    0[COMMON] unsigned char 
  2465 ;; Registers used:
  2466 ;;		wreg, status,2, status,0, btemp+1
  2467 ;; Tracked objects:
  2468 ;;		On entry : 300/0
  2469 ;;		On exit  : 300/0
  2470 ;;		Unchanged: 300/0
  2471 ;; Data sizes:     COMMON   BANK0   BANK1   BANK3   BANK2
  2472 ;;      Params:         4       0       0       0       0
  2473 ;;      Locals:         6       0       0       0       0
  2474 ;;      Temps:          4       0       0       0       0
  2475 ;;      Totals:        14       0       0       0       0
  2476 ;;Total ram usage:       14 bytes
  2477 ;; Hardware stack levels used: 1
  2478 ;; This function calls:
  2479 ;;		Nothing
  2480 ;; This function is called by:
  2481 ;;		_calDistance
  2482 ;; This function uses a non-reentrant model
  2483 ;;
  2484                           
  2485     049C                     ___xxtofl:	
  2486                           ;psect for function ___xxtofl
  2487                           
  2488                           
  2489                           ;incstack = 0
  2490                           ; Regs used in ___xxtofl: [wreg+status,2+status,0+btemp+1]
  2491                           ;___xxtofl@sign stored from wreg
  2492     049C  00F8               	movwf	___xxtofl@sign
  2493     049D  0878               	movf	___xxtofl@sign,w
  2494     049E  1D03               	btfss	3,2
  2495     049F  1FF3               	btfss	___xxtofl@val+3,7
  2496     04A0  2CB1               	goto	i1l1944
  2497     04A1  0970               	comf	___xxtofl@val,w
  2498     04A2  00FA               	movwf	___xxtofl@arg
  2499     04A3  0971               	comf	___xxtofl@val+1,w
  2500     04A4  00FB               	movwf	___xxtofl@arg+1
  2501     04A5  0972               	comf	___xxtofl@val+2,w
  2502     04A6  00FC               	movwf	___xxtofl@arg+2
  2503     04A7  0973               	comf	___xxtofl@val+3,w
  2504     04A8  00FD               	movwf	___xxtofl@arg+3
  2505     04A9  0AFA               	incf	___xxtofl@arg,f
  2506     04AA  1903               	skipnz
  2507     04AB  0AFB               	incf	___xxtofl@arg+1,f
  2508     04AC  1903               	skipnz
  2509     04AD  0AFC               	incf	___xxtofl@arg+2,f
  2510     04AE  1903               	skipnz
  2511     04AF  0AFD               	incf	___xxtofl@arg+3,f
  2512     04B0  2CB9               	goto	i1l915
  2513     04B1                     i1l1944:
  2514     04B1  0873               	movf	___xxtofl@val+3,w
  2515     04B2  00FD               	movwf	___xxtofl@arg+3
  2516     04B3  0872               	movf	___xxtofl@val+2,w
  2517     04B4  00FC               	movwf	___xxtofl@arg+2
  2518     04B5  0871               	movf	___xxtofl@val+1,w
  2519     04B6  00FB               	movwf	___xxtofl@arg+1
  2520     04B7  0870               	movf	___xxtofl@val,w
  2521     04B8  00FA               	movwf	___xxtofl@arg
  2522     04B9                     i1l915:
  2523     04B9  0873               	movf	___xxtofl@val+3,w
  2524     04BA  0472               	iorwf	___xxtofl@val+2,w
  2525     04BB  0471               	iorwf	___xxtofl@val+1,w
  2526     04BC  0470               	iorwf	___xxtofl@val,w
  2527     04BD  1D03               	skipz
  2528     04BE  2CC8               	goto	i1l1950
  2529     04BF  3000               	movlw	0
  2530     04C0  00F3               	movwf	?___xxtofl+3
  2531     04C1  3000               	movlw	0
  2532     04C2  00F2               	movwf	?___xxtofl+2
  2533     04C3  3000               	movlw	0
  2534     04C4  00F1               	movwf	?___xxtofl+1
  2535     04C5  3000               	movlw	0
  2536     04C6  00F0               	movwf	?___xxtofl
  2537     04C7  0008               	return
  2538     04C8                     i1l1950:
  2539     04C8  3096               	movlw	150
  2540     04C9  00F9               	movwf	___xxtofl@exp
  2541     04CA                     i1l1956:
  2542     04CA  30FE               	movlw	254
  2543     04CB  057D               	andwf	___xxtofl@arg+3,w
  2544     04CC  1903               	btfsc	3,2
  2545     04CD  2CF7               	goto	i1l1964
  2546     04CE  3001               	movlw	1
  2547     04CF  00FF               	movwf	127
  2548     04D0  087F               	movf	127,w
  2549     04D1  07F9               	addwf	___xxtofl@exp,f
  2550     04D2  3001               	movlw	1
  2551     04D3                     u174_25:
  2552     04D3  1003               	clrc
  2553     04D4  0CFD               	rrf	___xxtofl@arg+3,f
  2554     04D5  0CFC               	rrf	___xxtofl@arg+2,f
  2555     04D6  0CFB               	rrf	___xxtofl@arg+1,f
  2556     04D7  0CFA               	rrf	___xxtofl@arg,f
  2557     04D8  3EFF               	addlw	-1
  2558     04D9  1D03               	skipz
  2559     04DA  2CD3               	goto	u174_25
  2560     04DB  2CCA               	goto	i1l1956
  2561     04DC                     i1l1958:
  2562     04DC  3001               	movlw	1
  2563     04DD  00FF               	movwf	127
  2564     04DE  087F               	movf	127,w
  2565     04DF  07F9               	addwf	___xxtofl@exp,f
  2566     04E0  3001               	movlw	1
  2567     04E1  07FA               	addwf	___xxtofl@arg,f
  2568     04E2  3000               	movlw	0
  2569     04E3  1803               	skipnc
  2570     04E4  3001               	movlw	1
  2571     04E5  07FB               	addwf	___xxtofl@arg+1,f
  2572     04E6  3000               	movlw	0
  2573     04E7  1803               	skipnc
  2574     04E8  3001               	movlw	1
  2575     04E9  07FC               	addwf	___xxtofl@arg+2,f
  2576     04EA  3000               	movlw	0
  2577     04EB  1803               	skipnc
  2578     04EC  3001               	movlw	1
  2579     04ED  07FD               	addwf	___xxtofl@arg+3,f
  2580     04EE  3001               	movlw	1
  2581     04EF                     u176_25:
  2582     04EF  1003               	clrc
  2583     04F0  0CFD               	rrf	___xxtofl@arg+3,f
  2584     04F1  0CFC               	rrf	___xxtofl@arg+2,f
  2585     04F2  0CFB               	rrf	___xxtofl@arg+1,f
  2586     04F3  0CFA               	rrf	___xxtofl@arg,f
  2587     04F4  3EFF               	addlw	-1
  2588     04F5  1D03               	skipz
  2589     04F6  2CEF               	goto	u176_25
  2590     04F7                     i1l1964:
  2591     04F7  30FF               	movlw	255
  2592     04F8  057D               	andwf	___xxtofl@arg+3,w
  2593     04F9  1903               	btfsc	3,2
  2594     04FA  2D0B               	goto	i1l1968
  2595     04FB  2CDC               	goto	i1l1958
  2596     04FC                     i1l1970:
  2597     04FC  3002               	movlw	2
  2598     04FD  0279               	subwf	___xxtofl@exp,w
  2599     04FE  1C03               	btfss	3,0
  2600     04FF  2D0D               	goto	i1l928
  2601     0500  3001               	movlw	1
  2602     0501  02F9               	subwf	___xxtofl@exp,f
  2603     0502  3001               	movlw	1
  2604     0503  00F4               	movwf	??___xxtofl
  2605     0504                     u178_25:
  2606     0504  1003               	clrc
  2607     0505  0DFA               	rlf	___xxtofl@arg,f
  2608     0506  0DFB               	rlf	___xxtofl@arg+1,f
  2609     0507  0DFC               	rlf	___xxtofl@arg+2,f
  2610     0508  0DFD               	rlf	___xxtofl@arg+3,f
  2611     0509  0BF4               	decfsz	??___xxtofl,f
  2612     050A  2D04               	goto	u178_25
  2613     050B                     i1l1968:
  2614     050B  1FFC               	btfss	___xxtofl@arg+2,7
  2615     050C  2CFC               	goto	i1l1970
  2616     050D                     i1l928:
  2617     050D  1879               	btfsc	___xxtofl@exp,0
  2618     050E  2D17               	goto	i1l929
  2619     050F  30FF               	movlw	255
  2620     0510  05FA               	andwf	___xxtofl@arg,f
  2621     0511  30FF               	movlw	255
  2622     0512  05FB               	andwf	___xxtofl@arg+1,f
  2623     0513  307F               	movlw	127
  2624     0514  05FC               	andwf	___xxtofl@arg+2,f
  2625     0515  30FF               	movlw	255
  2626     0516  05FD               	andwf	___xxtofl@arg+3,f
  2627     0517                     i1l929:
  2628     0517  1003               	clrc
  2629     0518  0CF9               	rrf	___xxtofl@exp,f
  2630     0519  0879               	movf	___xxtofl@exp,w
  2631     051A  00F4               	movwf	??___xxtofl
  2632     051B  01F5               	clrf	??___xxtofl+1
  2633     051C  01F6               	clrf	??___xxtofl+2
  2634     051D  01F7               	clrf	??___xxtofl+3
  2635     051E  3018               	movlw	24
  2636     051F                     u182_25:
  2637     051F  1003               	clrc
  2638     0520  0DF4               	rlf	??___xxtofl,f
  2639     0521  0DF5               	rlf	??___xxtofl+1,f
  2640     0522  0DF6               	rlf	??___xxtofl+2,f
  2641     0523  0DF7               	rlf	??___xxtofl+3,f
  2642     0524  3EFF               	addlw	-1
  2643     0525  1D03               	skipz
  2644     0526  2D1F               	goto	u182_25
  2645     0527  0874               	movf	??___xxtofl,w
  2646     0528  04FA               	iorwf	___xxtofl@arg,f
  2647     0529  0875               	movf	??___xxtofl+1,w
  2648     052A  04FB               	iorwf	___xxtofl@arg+1,f
  2649     052B  0876               	movf	??___xxtofl+2,w
  2650     052C  04FC               	iorwf	___xxtofl@arg+2,f
  2651     052D  0877               	movf	??___xxtofl+3,w
  2652     052E  04FD               	iorwf	___xxtofl@arg+3,f
  2653     052F  0878               	movf	___xxtofl@sign,w
  2654     0530  1D03               	btfss	3,2
  2655     0531  1FF3               	btfss	___xxtofl@val+3,7
  2656     0532  2D34               	goto	i1l1982
  2657     0533  17FD               	bsf	___xxtofl@arg+3,7
  2658     0534                     i1l1982:
  2659     0534  087D               	movf	___xxtofl@arg+3,w
  2660     0535  00F3               	movwf	?___xxtofl+3
  2661     0536  087C               	movf	___xxtofl@arg+2,w
  2662     0537  00F2               	movwf	?___xxtofl+2
  2663     0538  087B               	movf	___xxtofl@arg+1,w
  2664     0539  00F1               	movwf	?___xxtofl+1
  2665     053A  087A               	movf	___xxtofl@arg,w
  2666     053B  00F0               	movwf	?___xxtofl
  2667     053C  0008               	return
  2668     053D                     __end_of___xxtofl:
  2669                           
  2670                           	psect	text18
  2671     002C                     __ptext18:	
  2672 ;; *************** function ___flmul *****************
  2673 ;; Defined at:
  2674 ;;		line 8 in file "C:\Program Files\Microchip\xc8\v2.41\pic\sources\c90\common\sprcmul.c"
  2675 ;; Parameters:    Size  Location     Type
  2676 ;;  b               4   26[BANK0 ] unsigned char 
  2677 ;;  a               4   30[BANK0 ] unsigned char 
  2678 ;; Auto vars:     Size  Location     Type
  2679 ;;  prod            4   46[BANK0 ] struct .
  2680 ;;  grs             4   41[BANK0 ] unsigned long 
  2681 ;;  temp            2   50[BANK0 ] struct .
  2682 ;;  bexp            1   45[BANK0 ] unsigned char 
  2683 ;;  aexp            1   40[BANK0 ] unsigned char 
  2684 ;;  sign            1   39[BANK0 ] unsigned char 
  2685 ;; Return value:  Size  Location     Type
  2686 ;;                  4   26[BANK0 ] unsigned char 
  2687 ;; Registers used:
  2688 ;;		wreg, status,2, status,0, btemp+1, pclath, cstack
  2689 ;; Tracked objects:
  2690 ;;		On entry : 300/0
  2691 ;;		On exit  : 300/0
  2692 ;;		Unchanged: 0/0
  2693 ;; Data sizes:     COMMON   BANK0   BANK1   BANK3   BANK2
  2694 ;;      Params:         0       8       0       0       0
  2695 ;;      Locals:         0      13       0       0       0
  2696 ;;      Temps:          0       5       0       0       0
  2697 ;;      Totals:         0      26       0       0       0
  2698 ;;Total ram usage:       26 bytes
  2699 ;; Hardware stack levels used: 1
  2700 ;; Hardware stack levels required when called: 1
  2701 ;; This function calls:
  2702 ;;		__Umul8_16
  2703 ;; This function is called by:
  2704 ;;		_calDistance
  2705 ;; This function uses a non-reentrant model
  2706 ;;
  2707                           
  2708     002C                     ___flmul:	
  2709                           ;psect for function ___flmul
  2710                           
  2711                           
  2712                           ;incstack = 0
  2713                           ; Regs used in ___flmul: [wreg+status,2+status,0+btemp+1+pclath+cstack]
  2714     002C  083D               	movf	___flmul@b+3,w
  2715     002D  3980               	andlw	128
  2716     002E  00C7               	movwf	___flmul@sign
  2717     002F  083D               	movf	___flmul@b+3,w
  2718     0030  00C2               	movwf	??___flmul
  2719     0031  0742               	addwf	??___flmul,w
  2720     0032  00CD               	movwf	___flmul@bexp
  2721     0033  1BBC               	btfsc	___flmul@b+2,7
  2722     0034  144D               	bsf	___flmul@bexp,0
  2723     0035  084D               	movf	___flmul@bexp,w
  2724     0036  1903               	btfsc	3,2
  2725     0037  2845               	goto	i1l1812
  2726     0038  0A4D               	incf	___flmul@bexp,w
  2727     0039  1D03               	btfss	3,2
  2728     003A  2843               	goto	i1l1810
  2729     003B  3000               	movlw	0
  2730     003C  00BD               	movwf	___flmul@b+3
  2731     003D  3000               	movlw	0
  2732     003E  00BC               	movwf	___flmul@b+2
  2733     003F  3000               	movlw	0
  2734     0040  00BB               	movwf	___flmul@b+1
  2735     0041  3000               	movlw	0
  2736     0042  00BA               	movwf	___flmul@b
  2737     0043                     i1l1810:
  2738     0043  17BC               	bsf	___flmul@b+2,7
  2739     0044  284D               	goto	i1l1814
  2740     0045                     i1l1812:
  2741     0045  3000               	movlw	0
  2742     0046  00BD               	movwf	___flmul@b+3
  2743     0047  3000               	movlw	0
  2744     0048  00BC               	movwf	___flmul@b+2
  2745     0049  3000               	movlw	0
  2746     004A  00BB               	movwf	___flmul@b+1
  2747     004B  3000               	movlw	0
  2748     004C  00BA               	movwf	___flmul@b
  2749     004D                     i1l1814:
  2750     004D  0841               	movf	___flmul@a+3,w
  2751     004E  3980               	andlw	128
  2752     004F  00FF               	movwf	127
  2753     0050  087F               	movf	127,w
  2754     0051  06C7               	xorwf	___flmul@sign,f
  2755     0052  0841               	movf	___flmul@a+3,w
  2756     0053  00C2               	movwf	??___flmul
  2757     0054  0742               	addwf	??___flmul,w
  2758     0055  00C8               	movwf	___flmul@aexp
  2759     0056  1BC0               	btfsc	___flmul@a+2,7
  2760     0057  1448               	bsf	___flmul@aexp,0
  2761     0058  0848               	movf	___flmul@aexp,w
  2762     0059  1903               	btfsc	3,2
  2763     005A  2868               	goto	i1l1830
  2764     005B  0A48               	incf	___flmul@aexp,w
  2765     005C  1D03               	btfss	3,2
  2766     005D  2866               	goto	i1l1828
  2767     005E  3000               	movlw	0
  2768     005F  00C1               	movwf	___flmul@a+3
  2769     0060  3000               	movlw	0
  2770     0061  00C0               	movwf	___flmul@a+2
  2771     0062  3000               	movlw	0
  2772     0063  00BF               	movwf	___flmul@a+1
  2773     0064  3000               	movlw	0
  2774     0065  00BE               	movwf	___flmul@a
  2775     0066                     i1l1828:
  2776     0066  17C0               	bsf	___flmul@a+2,7
  2777     0067  2870               	goto	i1l1832
  2778     0068                     i1l1830:
  2779     0068  3000               	movlw	0
  2780     0069  00C1               	movwf	___flmul@a+3
  2781     006A  3000               	movlw	0
  2782     006B  00C0               	movwf	___flmul@a+2
  2783     006C  3000               	movlw	0
  2784     006D  00BF               	movwf	___flmul@a+1
  2785     006E  3000               	movlw	0
  2786     006F  00BE               	movwf	___flmul@a
  2787     0070                     i1l1832:
  2788     0070  0848               	movf	___flmul@aexp,w
  2789     0071  1D03               	btfss	3,2
  2790     0072  084D               	movf	___flmul@bexp,w
  2791     0073  1D03               	btfss	3,2
  2792     0074  287E               	goto	i1l1840
  2793     0075  3000               	movlw	0
  2794     0076  00BD               	movwf	?___flmul+3
  2795     0077  3000               	movlw	0
  2796     0078  00BC               	movwf	?___flmul+2
  2797     0079  3000               	movlw	0
  2798     007A  00BB               	movwf	?___flmul+1
  2799     007B  3000               	movlw	0
  2800     007C  00BA               	movwf	?___flmul
  2801     007D  0008               	return
  2802     007E                     i1l1840:
  2803     007E  083A               	movf	___flmul@b,w
  2804     007F  00F0               	movwf	__Umul8_16@multiplicand
  2805     0080  0840               	movf	___flmul@a+2,w
  2806     0081  120A  118A  2752  120A  118A  	fcall	__Umul8_16
  2807     0086  0871               	movf	?__Umul8_16+1,w
  2808     0087  00D3               	movwf	___flmul@temp+1
  2809     0088  0870               	movf	?__Umul8_16,w
  2810     0089  00D2               	movwf	___flmul@temp
  2811     008A  0852               	movf	___flmul@temp,w
  2812     008B  00C2               	movwf	??___flmul
  2813     008C  01C3               	clrf	??___flmul+1
  2814     008D  01C4               	clrf	??___flmul+2
  2815     008E  01C5               	clrf	??___flmul+3
  2816     008F  0845               	movf	??___flmul+3,w
  2817     0090  00CC               	movwf	___flmul@grs+3
  2818     0091  0844               	movf	??___flmul+2,w
  2819     0092  00CB               	movwf	___flmul@grs+2
  2820     0093  0843               	movf	??___flmul+1,w
  2821     0094  00CA               	movwf	___flmul@grs+1
  2822     0095  0842               	movf	??___flmul,w
  2823     0096  00C9               	movwf	___flmul@grs
  2824     0097  0853               	movf	___flmul@temp+1,w
  2825     0098  00C2               	movwf	??___flmul
  2826     0099  01C3               	clrf	??___flmul+1
  2827     009A  01C4               	clrf	??___flmul+2
  2828     009B  01C5               	clrf	??___flmul+3
  2829     009C  0845               	movf	??___flmul+3,w
  2830     009D  00D1               	movwf	___flmul@prod+3
  2831     009E  0844               	movf	??___flmul+2,w
  2832     009F  00D0               	movwf	___flmul@prod+2
  2833     00A0  0843               	movf	??___flmul+1,w
  2834     00A1  00CF               	movwf	___flmul@prod+1
  2835     00A2  0842               	movf	??___flmul,w
  2836     00A3  00CE               	movwf	___flmul@prod
  2837     00A4  083B               	movf	___flmul@b+1,w
  2838     00A5  00F0               	movwf	__Umul8_16@multiplicand
  2839     00A6  083F               	movf	___flmul@a+1,w
  2840     00A7  120A  118A  2752  120A  118A  	fcall	__Umul8_16
  2841     00AC  0871               	movf	?__Umul8_16+1,w
  2842     00AD  00D3               	movwf	___flmul@temp+1
  2843     00AE  0870               	movf	?__Umul8_16,w
  2844     00AF  00D2               	movwf	___flmul@temp
  2845     00B0  0852               	movf	___flmul@temp,w
  2846     00B1  00C2               	movwf	??___flmul
  2847     00B2  01C3               	clrf	??___flmul+1
  2848     00B3  01C4               	clrf	??___flmul+2
  2849     00B4  01C5               	clrf	??___flmul+3
  2850     00B5  0842               	movf	??___flmul,w
  2851     00B6  07C9               	addwf	___flmul@grs,f
  2852     00B7  0843               	movf	??___flmul+1,w
  2853     00B8  1103               	clrz
  2854     00B9  1803               	skipnc
  2855     00BA  3E01               	addlw	1
  2856     00BB  1D03               	btfss	3,2
  2857     00BC  07CA               	addwf	___flmul@grs+1,f
  2858     00BD  0844               	movf	??___flmul+2,w
  2859     00BE  1103               	clrz
  2860     00BF  1803               	skipnc
  2861     00C0  3E01               	addlw	1
  2862     00C1  1D03               	btfss	3,2
  2863     00C2  07CB               	addwf	___flmul@grs+2,f
  2864     00C3  0845               	movf	??___flmul+3,w
  2865     00C4  1103               	clrz
  2866     00C5  1803               	skipnc
  2867     00C6  3E01               	addlw	1
  2868     00C7  1D03               	btfss	3,2
  2869     00C8  07CC               	addwf	___flmul@grs+3,f
  2870     00C9  0853               	movf	___flmul@temp+1,w
  2871     00CA  00C2               	movwf	??___flmul
  2872     00CB  01C3               	clrf	??___flmul+1
  2873     00CC  01C4               	clrf	??___flmul+2
  2874     00CD  01C5               	clrf	??___flmul+3
  2875     00CE  0842               	movf	??___flmul,w
  2876     00CF  07CE               	addwf	___flmul@prod,f
  2877     00D0  0843               	movf	??___flmul+1,w
  2878     00D1  1103               	clrz
  2879     00D2  1803               	skipnc
  2880     00D3  3E01               	addlw	1
  2881     00D4  1D03               	btfss	3,2
  2882     00D5  07CF               	addwf	___flmul@prod+1,f
  2883     00D6  0844               	movf	??___flmul+2,w
  2884     00D7  1103               	clrz
  2885     00D8  1803               	skipnc
  2886     00D9  3E01               	addlw	1
  2887     00DA  1D03               	btfss	3,2
  2888     00DB  07D0               	addwf	___flmul@prod+2,f
  2889     00DC  0845               	movf	??___flmul+3,w
  2890     00DD  1103               	clrz
  2891     00DE  1803               	skipnc
  2892     00DF  3E01               	addlw	1
  2893     00E0  1D03               	btfss	3,2
  2894     00E1  07D1               	addwf	___flmul@prod+3,f
  2895     00E2  083C               	movf	___flmul@b+2,w
  2896     00E3  00F0               	movwf	__Umul8_16@multiplicand
  2897     00E4  083E               	movf	___flmul@a,w
  2898     00E5  120A  118A  2752  120A  118A  	fcall	__Umul8_16
  2899     00EA  0871               	movf	?__Umul8_16+1,w
  2900     00EB  00D3               	movwf	___flmul@temp+1
  2901     00EC  0870               	movf	?__Umul8_16,w
  2902     00ED  00D2               	movwf	___flmul@temp
  2903     00EE  0852               	movf	___flmul@temp,w
  2904     00EF  00C2               	movwf	??___flmul
  2905     00F0  01C3               	clrf	??___flmul+1
  2906     00F1  01C4               	clrf	??___flmul+2
  2907     00F2  01C5               	clrf	??___flmul+3
  2908     00F3  0842               	movf	??___flmul,w
  2909     00F4  07C9               	addwf	___flmul@grs,f
  2910     00F5  0843               	movf	??___flmul+1,w
  2911     00F6  1103               	clrz
  2912     00F7  1803               	skipnc
  2913     00F8  3E01               	addlw	1
  2914     00F9  1D03               	btfss	3,2
  2915     00FA  07CA               	addwf	___flmul@grs+1,f
  2916     00FB  0844               	movf	??___flmul+2,w
  2917     00FC  1103               	clrz
  2918     00FD  1803               	skipnc
  2919     00FE  3E01               	addlw	1
  2920     00FF  1D03               	btfss	3,2
  2921     0100  07CB               	addwf	___flmul@grs+2,f
  2922     0101  0845               	movf	??___flmul+3,w
  2923     0102  1103               	clrz
  2924     0103  1803               	skipnc
  2925     0104  3E01               	addlw	1
  2926     0105  1D03               	btfss	3,2
  2927     0106  07CC               	addwf	___flmul@grs+3,f
  2928     0107  0853               	movf	___flmul@temp+1,w
  2929     0108  00C2               	movwf	??___flmul
  2930     0109  01C3               	clrf	??___flmul+1
  2931     010A  01C4               	clrf	??___flmul+2
  2932     010B  01C5               	clrf	??___flmul+3
  2933     010C  0842               	movf	??___flmul,w
  2934     010D  07CE               	addwf	___flmul@prod,f
  2935     010E  0843               	movf	??___flmul+1,w
  2936     010F  1103               	clrz
  2937     0110  1803               	skipnc
  2938     0111  3E01               	addlw	1
  2939     0112  1D03               	btfss	3,2
  2940     0113  07CF               	addwf	___flmul@prod+1,f
  2941     0114  0844               	movf	??___flmul+2,w
  2942     0115  1103               	clrz
  2943     0116  1803               	skipnc
  2944     0117  3E01               	addlw	1
  2945     0118  1D03               	btfss	3,2
  2946     0119  07D0               	addwf	___flmul@prod+2,f
  2947     011A  0845               	movf	??___flmul+3,w
  2948     011B  1103               	clrz
  2949     011C  1803               	skipnc
  2950     011D  3E01               	addlw	1
  2951     011E  1D03               	btfss	3,2
  2952     011F  07D1               	addwf	___flmul@prod+3,f
  2953     0120  3008               	movlw	8
  2954     0121  00C2               	movwf	??___flmul
  2955     0122                     u147_25:
  2956     0122  1003               	clrc
  2957     0123  0DC9               	rlf	___flmul@grs,f
  2958     0124  0DCA               	rlf	___flmul@grs+1,f
  2959     0125  0DCB               	rlf	___flmul@grs+2,f
  2960     0126  0DCC               	rlf	___flmul@grs+3,f
  2961     0127  0BC2               	decfsz	??___flmul,f
  2962     0128  2922               	goto	u147_25
  2963     0129  083B               	movf	___flmul@b+1,w
  2964     012A  00F0               	movwf	__Umul8_16@multiplicand
  2965     012B  083E               	movf	___flmul@a,w
  2966     012C  120A  118A  2752  120A  118A  	fcall	__Umul8_16
  2967     0131  0871               	movf	?__Umul8_16+1,w
  2968     0132  00D3               	movwf	___flmul@temp+1
  2969     0133  0870               	movf	?__Umul8_16,w
  2970     0134  00D2               	movwf	___flmul@temp
  2971     0135  0852               	movf	___flmul@temp,w
  2972     0136  00C2               	movwf	??___flmul
  2973     0137  0853               	movf	___flmul@temp+1,w
  2974     0138  00C3               	movwf	??___flmul+1
  2975     0139  01C4               	clrf	??___flmul+2
  2976     013A  01C5               	clrf	??___flmul+3
  2977     013B  0842               	movf	??___flmul,w
  2978     013C  07C9               	addwf	___flmul@grs,f
  2979     013D  0843               	movf	??___flmul+1,w
  2980     013E  1103               	clrz
  2981     013F  1803               	skipnc
  2982     0140  3E01               	addlw	1
  2983     0141  1D03               	btfss	3,2
  2984     0142  07CA               	addwf	___flmul@grs+1,f
  2985     0143  0844               	movf	??___flmul+2,w
  2986     0144  1103               	clrz
  2987     0145  1803               	skipnc
  2988     0146  3E01               	addlw	1
  2989     0147  1D03               	btfss	3,2
  2990     0148  07CB               	addwf	___flmul@grs+2,f
  2991     0149  0845               	movf	??___flmul+3,w
  2992     014A  1103               	clrz
  2993     014B  1803               	skipnc
  2994     014C  3E01               	addlw	1
  2995     014D  1D03               	btfss	3,2
  2996     014E  07CC               	addwf	___flmul@grs+3,f
  2997     014F  083A               	movf	___flmul@b,w
  2998     0150  00F0               	movwf	__Umul8_16@multiplicand
  2999     0151  083F               	movf	___flmul@a+1,w
  3000     0152  120A  118A  2752  120A  118A  	fcall	__Umul8_16
  3001     0157  0871               	movf	?__Umul8_16+1,w
  3002     0158  00D3               	movwf	___flmul@temp+1
  3003     0159  0870               	movf	?__Umul8_16,w
  3004     015A  00D2               	movwf	___flmul@temp
  3005     015B  0852               	movf	___flmul@temp,w
  3006     015C  00C2               	movwf	??___flmul
  3007     015D  0853               	movf	___flmul@temp+1,w
  3008     015E  00C3               	movwf	??___flmul+1
  3009     015F  01C4               	clrf	??___flmul+2
  3010     0160  01C5               	clrf	??___flmul+3
  3011     0161  0842               	movf	??___flmul,w
  3012     0162  07C9               	addwf	___flmul@grs,f
  3013     0163  0843               	movf	??___flmul+1,w
  3014     0164  1103               	clrz
  3015     0165  1803               	skipnc
  3016     0166  3E01               	addlw	1
  3017     0167  1D03               	btfss	3,2
  3018     0168  07CA               	addwf	___flmul@grs+1,f
  3019     0169  0844               	movf	??___flmul+2,w
  3020     016A  1103               	clrz
  3021     016B  1803               	skipnc
  3022     016C  3E01               	addlw	1
  3023     016D  1D03               	btfss	3,2
  3024     016E  07CB               	addwf	___flmul@grs+2,f
  3025     016F  0845               	movf	??___flmul+3,w
  3026     0170  1103               	clrz
  3027     0171  1803               	skipnc
  3028     0172  3E01               	addlw	1
  3029     0173  1D03               	btfss	3,2
  3030     0174  07CC               	addwf	___flmul@grs+3,f
  3031     0175  3008               	movlw	8
  3032     0176  00C2               	movwf	??___flmul
  3033     0177                     u150_25:
  3034     0177  1003               	clrc
  3035     0178  0DC9               	rlf	___flmul@grs,f
  3036     0179  0DCA               	rlf	___flmul@grs+1,f
  3037     017A  0DCB               	rlf	___flmul@grs+2,f
  3038     017B  0DCC               	rlf	___flmul@grs+3,f
  3039     017C  0BC2               	decfsz	??___flmul,f
  3040     017D  2977               	goto	u150_25
  3041     017E  083A               	movf	___flmul@b,w
  3042     017F  00F0               	movwf	__Umul8_16@multiplicand
  3043     0180  083E               	movf	___flmul@a,w
  3044     0181  120A  118A  2752  120A  118A  	fcall	__Umul8_16
  3045     0186  0871               	movf	?__Umul8_16+1,w
  3046     0187  00D3               	movwf	___flmul@temp+1
  3047     0188  0870               	movf	?__Umul8_16,w
  3048     0189  00D2               	movwf	___flmul@temp
  3049     018A  0852               	movf	___flmul@temp,w
  3050     018B  00C2               	movwf	??___flmul
  3051     018C  0853               	movf	___flmul@temp+1,w
  3052     018D  00C3               	movwf	??___flmul+1
  3053     018E  01C4               	clrf	??___flmul+2
  3054     018F  01C5               	clrf	??___flmul+3
  3055     0190  0842               	movf	??___flmul,w
  3056     0191  07C9               	addwf	___flmul@grs,f
  3057     0192  0843               	movf	??___flmul+1,w
  3058     0193  1103               	clrz
  3059     0194  1803               	skipnc
  3060     0195  3E01               	addlw	1
  3061     0196  1D03               	btfss	3,2
  3062     0197  07CA               	addwf	___flmul@grs+1,f
  3063     0198  0844               	movf	??___flmul+2,w
  3064     0199  1103               	clrz
  3065     019A  1803               	skipnc
  3066     019B  3E01               	addlw	1
  3067     019C  1D03               	btfss	3,2
  3068     019D  07CB               	addwf	___flmul@grs+2,f
  3069     019E  0845               	movf	??___flmul+3,w
  3070     019F  1103               	clrz
  3071     01A0  1803               	skipnc
  3072     01A1  3E01               	addlw	1
  3073     01A2  1D03               	btfss	3,2
  3074     01A3  07CC               	addwf	___flmul@grs+3,f
  3075     01A4  083B               	movf	___flmul@b+1,w
  3076     01A5  00F0               	movwf	__Umul8_16@multiplicand
  3077     01A6  0840               	movf	___flmul@a+2,w
  3078     01A7  120A  118A  2752  120A  118A  	fcall	__Umul8_16
  3079     01AC  0871               	movf	?__Umul8_16+1,w
  3080     01AD  00D3               	movwf	___flmul@temp+1
  3081     01AE  0870               	movf	?__Umul8_16,w
  3082     01AF  00D2               	movwf	___flmul@temp
  3083     01B0  0852               	movf	___flmul@temp,w
  3084     01B1  00C2               	movwf	??___flmul
  3085     01B2  0853               	movf	___flmul@temp+1,w
  3086     01B3  00C3               	movwf	??___flmul+1
  3087     01B4  01C4               	clrf	??___flmul+2
  3088     01B5  01C5               	clrf	??___flmul+3
  3089     01B6  0842               	movf	??___flmul,w
  3090     01B7  07CE               	addwf	___flmul@prod,f
  3091     01B8  0843               	movf	??___flmul+1,w
  3092     01B9  1103               	clrz
  3093     01BA  1803               	skipnc
  3094     01BB  3E01               	addlw	1
  3095     01BC  1D03               	btfss	3,2
  3096     01BD  07CF               	addwf	___flmul@prod+1,f
  3097     01BE  0844               	movf	??___flmul+2,w
  3098     01BF  1103               	clrz
  3099     01C0  1803               	skipnc
  3100     01C1  3E01               	addlw	1
  3101     01C2  1D03               	btfss	3,2
  3102     01C3  07D0               	addwf	___flmul@prod+2,f
  3103     01C4  0845               	movf	??___flmul+3,w
  3104     01C5  1103               	clrz
  3105     01C6  1803               	skipnc
  3106     01C7  3E01               	addlw	1
  3107     01C8  1D03               	btfss	3,2
  3108     01C9  07D1               	addwf	___flmul@prod+3,f
  3109     01CA  083C               	movf	___flmul@b+2,w
  3110     01CB  00F0               	movwf	__Umul8_16@multiplicand
  3111     01CC  083F               	movf	___flmul@a+1,w
  3112     01CD  120A  118A  2752  120A  118A  	fcall	__Umul8_16
  3113     01D2  0871               	movf	?__Umul8_16+1,w
  3114     01D3  00D3               	movwf	___flmul@temp+1
  3115     01D4  0870               	movf	?__Umul8_16,w
  3116     01D5  00D2               	movwf	___flmul@temp
  3117     01D6  0852               	movf	___flmul@temp,w
  3118     01D7  00C2               	movwf	??___flmul
  3119     01D8  0853               	movf	___flmul@temp+1,w
  3120     01D9  00C3               	movwf	??___flmul+1
  3121     01DA  01C4               	clrf	??___flmul+2
  3122     01DB  01C5               	clrf	??___flmul+3
  3123     01DC  0842               	movf	??___flmul,w
  3124     01DD  07CE               	addwf	___flmul@prod,f
  3125     01DE  0843               	movf	??___flmul+1,w
  3126     01DF  1103               	clrz
  3127     01E0  1803               	skipnc
  3128     01E1  3E01               	addlw	1
  3129     01E2  1D03               	btfss	3,2
  3130     01E3  07CF               	addwf	___flmul@prod+1,f
  3131     01E4  0844               	movf	??___flmul+2,w
  3132     01E5  1103               	clrz
  3133     01E6  1803               	skipnc
  3134     01E7  3E01               	addlw	1
  3135     01E8  1D03               	btfss	3,2
  3136     01E9  07D0               	addwf	___flmul@prod+2,f
  3137     01EA  0845               	movf	??___flmul+3,w
  3138     01EB  1103               	clrz
  3139     01EC  1803               	skipnc
  3140     01ED  3E01               	addlw	1
  3141     01EE  1D03               	btfss	3,2
  3142     01EF  07D1               	addwf	___flmul@prod+3,f
  3143     01F0  083C               	movf	___flmul@b+2,w
  3144     01F1  00F0               	movwf	__Umul8_16@multiplicand
  3145     01F2  0840               	movf	___flmul@a+2,w
  3146     01F3  120A  118A  2752  120A  118A  	fcall	__Umul8_16
  3147     01F8  0871               	movf	?__Umul8_16+1,w
  3148     01F9  00D3               	movwf	___flmul@temp+1
  3149     01FA  0870               	movf	?__Umul8_16,w
  3150     01FB  00D2               	movwf	___flmul@temp
  3151     01FC  0852               	movf	___flmul@temp,w
  3152     01FD  00C2               	movwf	??___flmul
  3153     01FE  0853               	movf	___flmul@temp+1,w
  3154     01FF  00C3               	movwf	??___flmul+1
  3155     0200  01C4               	clrf	??___flmul+2
  3156     0201  01C5               	clrf	??___flmul+3
  3157     0202  3008               	movlw	8
  3158     0203                     u154_25:
  3159     0203  1003               	clrc
  3160     0204  0DC2               	rlf	??___flmul,f
  3161     0205  0DC3               	rlf	??___flmul+1,f
  3162     0206  0DC4               	rlf	??___flmul+2,f
  3163     0207  0DC5               	rlf	??___flmul+3,f
  3164     0208  3EFF               	addlw	-1
  3165     0209  1D03               	skipz
  3166     020A  2A03               	goto	u154_25
  3167     020B  0842               	movf	??___flmul,w
  3168     020C  07CE               	addwf	___flmul@prod,f
  3169     020D  0843               	movf	??___flmul+1,w
  3170     020E  1103               	clrz
  3171     020F  1803               	skipnc
  3172     0210  3E01               	addlw	1
  3173     0211  1D03               	btfss	3,2
  3174     0212  07CF               	addwf	___flmul@prod+1,f
  3175     0213  0844               	movf	??___flmul+2,w
  3176     0214  1103               	clrz
  3177     0215  1803               	skipnc
  3178     0216  3E01               	addlw	1
  3179     0217  1D03               	btfss	3,2
  3180     0218  07D0               	addwf	___flmul@prod+2,f
  3181     0219  0845               	movf	??___flmul+3,w
  3182     021A  1103               	clrz
  3183     021B  1803               	skipnc
  3184     021C  3E01               	addlw	1
  3185     021D  1D03               	btfss	3,2
  3186     021E  07D1               	addwf	___flmul@prod+3,f
  3187     021F  084C               	movf	___flmul@grs+3,w
  3188     0220  00C2               	movwf	??___flmul
  3189     0221  01C3               	clrf	??___flmul+1
  3190     0222  01C4               	clrf	??___flmul+2
  3191     0223  01C5               	clrf	??___flmul+3
  3192     0224  0842               	movf	??___flmul,w
  3193     0225  07CE               	addwf	___flmul@prod,f
  3194     0226  0843               	movf	??___flmul+1,w
  3195     0227  1103               	clrz
  3196     0228  1803               	skipnc
  3197     0229  3E01               	addlw	1
  3198     022A  1D03               	btfss	3,2
  3199     022B  07CF               	addwf	___flmul@prod+1,f
  3200     022C  0844               	movf	??___flmul+2,w
  3201     022D  1103               	clrz
  3202     022E  1803               	skipnc
  3203     022F  3E01               	addlw	1
  3204     0230  1D03               	btfss	3,2
  3205     0231  07D0               	addwf	___flmul@prod+2,f
  3206     0232  0845               	movf	??___flmul+3,w
  3207     0233  1103               	clrz
  3208     0234  1803               	skipnc
  3209     0235  3E01               	addlw	1
  3210     0236  1D03               	btfss	3,2
  3211     0237  07D1               	addwf	___flmul@prod+3,f
  3212     0238  3008               	movlw	8
  3213     0239  00C2               	movwf	??___flmul
  3214     023A                     u157_25:
  3215     023A  1003               	clrc
  3216     023B  0DC9               	rlf	___flmul@grs,f
  3217     023C  0DCA               	rlf	___flmul@grs+1,f
  3218     023D  0DCB               	rlf	___flmul@grs+2,f
  3219     023E  0DCC               	rlf	___flmul@grs+3,f
  3220     023F  0BC2               	decfsz	??___flmul,f
  3221     0240  2A3A               	goto	u157_25
  3222     0241  084D               	movf	___flmul@bexp,w
  3223     0242  0748               	addwf	___flmul@aexp,w
  3224     0243  00C2               	movwf	??___flmul
  3225     0244  01C3               	clrf	??___flmul+1
  3226     0245  0DC3               	rlf	??___flmul+1,f
  3227     0246  0842               	movf	??___flmul,w
  3228     0247  3E82               	addlw	130
  3229     0248  00D2               	movwf	___flmul@temp
  3230     0249  0843               	movf	??___flmul+1,w
  3231     024A  1803               	skipnc
  3232     024B  3E01               	addlw	1
  3233     024C  3EFF               	addlw	255
  3234     024D  00D3               	movwf	___flmul@temp+1
  3235     024E                     i1l1892:
  3236     024E  1BD0               	btfsc	___flmul@prod+2,7
  3237     024F  2A6B               	goto	i1l1894
  3238     0250  3001               	movlw	1
  3239     0251  00C2               	movwf	??___flmul
  3240     0252                     u158_25:
  3241     0252  1003               	clrc
  3242     0253  0DCE               	rlf	___flmul@prod,f
  3243     0254  0DCF               	rlf	___flmul@prod+1,f
  3244     0255  0DD0               	rlf	___flmul@prod+2,f
  3245     0256  0DD1               	rlf	___flmul@prod+3,f
  3246     0257  0BC2               	decfsz	??___flmul,f
  3247     0258  2A52               	goto	u158_25
  3248     0259  1BCC               	btfsc	___flmul@grs+3,7
  3249     025A  144E               	bsf	___flmul@prod,0
  3250     025B  3001               	movlw	1
  3251     025C  00C2               	movwf	??___flmul
  3252     025D                     u160_25:
  3253     025D  1003               	clrc
  3254     025E  0DC9               	rlf	___flmul@grs,f
  3255     025F  0DCA               	rlf	___flmul@grs+1,f
  3256     0260  0DCB               	rlf	___flmul@grs+2,f
  3257     0261  0DCC               	rlf	___flmul@grs+3,f
  3258     0262  0BC2               	decfsz	??___flmul,f
  3259     0263  2A5D               	goto	u160_25
  3260     0264  30FF               	movlw	255
  3261     0265  07D2               	addwf	___flmul@temp,f
  3262     0266  1803               	skipnc
  3263     0267  0AD3               	incf	___flmul@temp+1,f
  3264     0268  30FF               	movlw	255
  3265     0269  07D3               	addwf	___flmul@temp+1,f
  3266     026A  2A4E               	goto	i1l1892
  3267     026B                     i1l1894:
  3268     026B  01C8               	clrf	___flmul@aexp
  3269     026C  1FCC               	btfss	___flmul@grs+3,7
  3270     026D  2A84               	goto	i1l1904
  3271     026E  30FF               	movlw	255
  3272     026F  0549               	andwf	___flmul@grs,w
  3273     0270  00C2               	movwf	??___flmul
  3274     0271  30FF               	movlw	255
  3275     0272  054A               	andwf	___flmul@grs+1,w
  3276     0273  00C3               	movwf	??___flmul+1
  3277     0274  30FF               	movlw	255
  3278     0275  054B               	andwf	___flmul@grs+2,w
  3279     0276  00C4               	movwf	??___flmul+2
  3280     0277  307F               	movlw	127
  3281     0278  054C               	andwf	___flmul@grs+3,w
  3282     0279  00C5               	movwf	??___flmul+3
  3283     027A  0845               	movf	??___flmul+3,w
  3284     027B  0444               	iorwf	??___flmul+2,w
  3285     027C  0443               	iorwf	??___flmul+1,w
  3286     027D  0442               	iorwf	??___flmul,w
  3287     027E  1903               	skipnz
  3288     027F  184E               	btfsc	___flmul@prod,0
  3289     0280  2A82               	goto	i1l1900
  3290     0281  2A84               	goto	i1l1904
  3291     0282                     i1l1900:
  3292     0282  01C8               	clrf	___flmul@aexp
  3293     0283  0AC8               	incf	___flmul@aexp,f
  3294     0284                     i1l1904:
  3295     0284  0848               	movf	___flmul@aexp,w
  3296     0285  1903               	btfsc	3,2
  3297     0286  2AB6               	goto	i1l1914
  3298     0287  3001               	movlw	1
  3299     0288  07CE               	addwf	___flmul@prod,f
  3300     0289  3000               	movlw	0
  3301     028A  1803               	skipnc
  3302     028B  3001               	movlw	1
  3303     028C  07CF               	addwf	___flmul@prod+1,f
  3304     028D  3000               	movlw	0
  3305     028E  1803               	skipnc
  3306     028F  3001               	movlw	1
  3307     0290  07D0               	addwf	___flmul@prod+2,f
  3308     0291  3000               	movlw	0
  3309     0292  1803               	skipnc
  3310     0293  3001               	movlw	1
  3311     0294  07D1               	addwf	___flmul@prod+3,f
  3312     0295  1C51               	btfss	___flmul@prod+3,0
  3313     0296  2AB6               	goto	i1l1914
  3314     0297  084E               	movf	___flmul@prod,w
  3315     0298  00C2               	movwf	??___flmul
  3316     0299  084F               	movf	___flmul@prod+1,w
  3317     029A  00C3               	movwf	??___flmul+1
  3318     029B  0850               	movf	___flmul@prod+2,w
  3319     029C  00C4               	movwf	??___flmul+2
  3320     029D  0851               	movf	___flmul@prod+3,w
  3321     029E  00C5               	movwf	??___flmul+3
  3322     029F  3001               	movlw	1
  3323     02A0  00C6               	movwf	??___flmul+4
  3324     02A1                     u167_25:
  3325     02A1  0D45               	rlf	??___flmul+3,w
  3326     02A2  0CC5               	rrf	??___flmul+3,f
  3327     02A3  0CC4               	rrf	??___flmul+2,f
  3328     02A4  0CC3               	rrf	??___flmul+1,f
  3329     02A5  0CC2               	rrf	??___flmul,f
  3330     02A6  0BC6               	decfsz	??___flmul+4,f
  3331     02A7  2AA1               	goto	u167_25
  3332     02A8  0845               	movf	??___flmul+3,w
  3333     02A9  00D1               	movwf	___flmul@prod+3
  3334     02AA  0844               	movf	??___flmul+2,w
  3335     02AB  00D0               	movwf	___flmul@prod+2
  3336     02AC  0843               	movf	??___flmul+1,w
  3337     02AD  00CF               	movwf	___flmul@prod+1
  3338     02AE  0842               	movf	??___flmul,w
  3339     02AF  00CE               	movwf	___flmul@prod
  3340     02B0  3001               	movlw	1
  3341     02B1  07D2               	addwf	___flmul@temp,f
  3342     02B2  1803               	skipnc
  3343     02B3  0AD3               	incf	___flmul@temp+1,f
  3344     02B4  3000               	movlw	0
  3345     02B5  07D3               	addwf	___flmul@temp+1,f
  3346     02B6                     i1l1914:
  3347     02B6  0853               	movf	___flmul@temp+1,w
  3348     02B7  3A80               	xorlw	128
  3349     02B8  00FF               	movwf	127
  3350     02B9  3080               	movlw	128
  3351     02BA  027F               	subwf	127,w
  3352     02BB  1D03               	skipz
  3353     02BC  2ABF               	goto	u168_25
  3354     02BD  30FF               	movlw	255
  3355     02BE  0252               	subwf	___flmul@temp,w
  3356     02BF                     u168_25:
  3357     02BF  1C03               	skipc
  3358     02C0  2ACC               	goto	i1l1918
  3359     02C1  307F               	movlw	127
  3360     02C2  1283               	bcf	3,5	;RP0=0, select bank0
  3361     02C3  1303               	bcf	3,6	;RP1=0, select bank0
  3362     02C4  00D1               	movwf	___flmul@prod+3
  3363     02C5  3080               	movlw	128
  3364     02C6  00D0               	movwf	___flmul@prod+2
  3365     02C7  3000               	movlw	0
  3366     02C8  00CF               	movwf	___flmul@prod+1
  3367     02C9  3000               	movlw	0
  3368     02CA  00CE               	movwf	___flmul@prod
  3369     02CB  2AF8               	goto	i1l1932
  3370     02CC                     i1l1918:
  3371     02CC  1283               	bcf	3,5	;RP0=0, select bank0
  3372     02CD  1303               	bcf	3,6	;RP1=0, select bank0
  3373     02CE  0853               	movf	___flmul@temp+1,w
  3374     02CF  3A80               	xorlw	128
  3375     02D0  00FF               	movwf	127
  3376     02D1  3080               	movlw	128
  3377     02D2  027F               	subwf	127,w
  3378     02D3  1D03               	skipz
  3379     02D4  2AD7               	goto	u169_25
  3380     02D5  3001               	movlw	1
  3381     02D6  0252               	subwf	___flmul@temp,w
  3382     02D7                     u169_25:
  3383     02D7  1803               	skipnc
  3384     02D8  2AE5               	goto	i1l1924
  3385     02D9  3000               	movlw	0
  3386     02DA  1283               	bcf	3,5	;RP0=0, select bank0
  3387     02DB  1303               	bcf	3,6	;RP1=0, select bank0
  3388     02DC  00D1               	movwf	___flmul@prod+3
  3389     02DD  3000               	movlw	0
  3390     02DE  00D0               	movwf	___flmul@prod+2
  3391     02DF  3000               	movlw	0
  3392     02E0  00CF               	movwf	___flmul@prod+1
  3393     02E1  3000               	movlw	0
  3394     02E2  00CE               	movwf	___flmul@prod
  3395     02E3  01C7               	clrf	___flmul@sign
  3396     02E4  2AF8               	goto	i1l1932
  3397     02E5                     i1l1924:
  3398     02E5  1283               	bcf	3,5	;RP0=0, select bank0
  3399     02E6  1303               	bcf	3,6	;RP1=0, select bank0
  3400     02E7  0852               	movf	___flmul@temp,w
  3401     02E8  00CD               	movwf	___flmul@bexp
  3402     02E9  30FF               	movlw	255
  3403     02EA  05CE               	andwf	___flmul@prod,f
  3404     02EB  30FF               	movlw	255
  3405     02EC  05CF               	andwf	___flmul@prod+1,f
  3406     02ED  307F               	movlw	127
  3407     02EE  05D0               	andwf	___flmul@prod+2,f
  3408     02EF  3000               	movlw	0
  3409     02F0  05D1               	andwf	___flmul@prod+3,f
  3410     02F1  184D               	btfsc	___flmul@bexp,0
  3411     02F2  17D0               	bsf	___flmul@prod+2,7
  3412     02F3  084D               	movf	___flmul@bexp,w
  3413     02F4  00C2               	movwf	??___flmul
  3414     02F5  1003               	clrc
  3415     02F6  0C42               	rrf	??___flmul,w
  3416     02F7  00D1               	movwf	___flmul@prod+3
  3417     02F8                     i1l1932:
  3418     02F8  0847               	movf	___flmul@sign,w
  3419     02F9  00FF               	movwf	127
  3420     02FA  087F               	movf	127,w
  3421     02FB  04D1               	iorwf	___flmul@prod+3,f
  3422     02FC  0851               	movf	___flmul@prod+3,w
  3423     02FD  00BD               	movwf	?___flmul+3
  3424     02FE  0850               	movf	___flmul@prod+2,w
  3425     02FF  00BC               	movwf	?___flmul+2
  3426     0300  084F               	movf	___flmul@prod+1,w
  3427     0301  00BB               	movwf	?___flmul+1
  3428     0302  084E               	movf	___flmul@prod,w
  3429     0303  00BA               	movwf	?___flmul
  3430     0304  0008               	return
  3431     0305                     __end_of___flmul:
  3432                           
  3433                           	psect	text19
  3434     0752                     __ptext19:	
  3435 ;; *************** function __Umul8_16 *****************
  3436 ;; Defined at:
  3437 ;;		line 4 in file "C:\Program Files\Microchip\xc8\v2.41\pic\sources\c90\common\Umul8_16.c"
  3438 ;; Parameters:    Size  Location     Type
  3439 ;;  multiplier      1    wreg     unsigned char 
  3440 ;;  multiplicand    1    0[COMMON] unsigned char 
  3441 ;; Auto vars:     Size  Location     Type
  3442 ;;  multiplier      1    8[COMMON] unsigned char 
  3443 ;;  word_mpld       2    6[COMMON] unsigned int 
  3444 ;;  product         2    4[COMMON] unsigned int 
  3445 ;; Return value:  Size  Location     Type
  3446 ;;                  2    0[COMMON] unsigned int 
  3447 ;; Registers used:
  3448 ;;		wreg, status,2, status,0
  3449 ;; Tracked objects:
  3450 ;;		On entry : 300/0
  3451 ;;		On exit  : 300/0
  3452 ;;		Unchanged: 300/0
  3453 ;; Data sizes:     COMMON   BANK0   BANK1   BANK3   BANK2
  3454 ;;      Params:         2       0       0       0       0
  3455 ;;      Locals:         5       0       0       0       0
  3456 ;;      Temps:          2       0       0       0       0
  3457 ;;      Totals:         9       0       0       0       0
  3458 ;;Total ram usage:        9 bytes
  3459 ;; Hardware stack levels used: 1
  3460 ;; This function calls:
  3461 ;;		Nothing
  3462 ;; This function is called by:
  3463 ;;		___flmul
  3464 ;; This function uses a non-reentrant model
  3465 ;;
  3466                           
  3467     0752                     __Umul8_16:	
  3468                           ;psect for function __Umul8_16
  3469                           
  3470                           
  3471                           ;incstack = 0
  3472                           ; Regs used in __Umul8_16: [wreg+status,2+status,0]
  3473                           ;__Umul8_16@multiplier stored from wreg
  3474     0752  00F8               	movwf	__Umul8_16@multiplier
  3475     0753  01F4               	clrf	__Umul8_16@product
  3476     0754  01F5               	clrf	__Umul8_16@product+1
  3477     0755  0870               	movf	__Umul8_16@multiplicand,w
  3478     0756  00F2               	movwf	??__Umul8_16
  3479     0757  01F3               	clrf	??__Umul8_16+1
  3480     0758  0872               	movf	??__Umul8_16,w
  3481     0759  00F6               	movwf	__Umul8_16@word_mpld
  3482     075A  0873               	movf	??__Umul8_16+1,w
  3483     075B  00F7               	movwf	__Umul8_16@word_mpld+1
  3484     075C                     i1l1626:
  3485     075C  1C78               	btfss	__Umul8_16@multiplier,0
  3486     075D  2F64               	goto	i1l890
  3487     075E  0876               	movf	__Umul8_16@word_mpld,w
  3488     075F  07F4               	addwf	__Umul8_16@product,f
  3489     0760  1803               	skipnc
  3490     0761  0AF5               	incf	__Umul8_16@product+1,f
  3491     0762  0877               	movf	__Umul8_16@word_mpld+1,w
  3492     0763  07F5               	addwf	__Umul8_16@product+1,f
  3493     0764                     i1l890:
  3494     0764  3001               	movlw	1
  3495     0765                     u104_25:
  3496     0765  1003               	clrc
  3497     0766  0DF6               	rlf	__Umul8_16@word_mpld,f
  3498     0767  0DF7               	rlf	__Umul8_16@word_mpld+1,f
  3499     0768  3EFF               	addlw	-1
  3500     0769  1D03               	skipz
  3501     076A  2F65               	goto	u104_25
  3502     076B  1003               	clrc
  3503     076C  0CF8               	rrf	__Umul8_16@multiplier,f
  3504     076D  0878               	movf	__Umul8_16@multiplier,w
  3505     076E  1D03               	btfss	3,2
  3506     076F  2F5C               	goto	i1l1626
  3507     0770  0875               	movf	__Umul8_16@product+1,w
  3508     0771  00F1               	movwf	?__Umul8_16+1
  3509     0772  0874               	movf	__Umul8_16@product,w
  3510     0773  00F0               	movwf	?__Umul8_16
  3511     0774  0008               	return
  3512     0775                     __end_of__Umul8_16:
  3513                           
  3514                           	psect	text20
  3515     0305                     __ptext20:	
  3516 ;; *************** function ___fldiv *****************
  3517 ;; Defined at:
  3518 ;;		line 8 in file "C:\Program Files\Microchip\xc8\v2.41\pic\sources\c90\common\sprcdiv.c"
  3519 ;; Parameters:    Size  Location     Type
  3520 ;;  a               4    0[BANK0 ] unsigned int 
  3521 ;;  b               4    4[BANK0 ] unsigned int 
  3522 ;; Auto vars:     Size  Location     Type
  3523 ;;  grs             4   20[BANK0 ] unsigned long 
  3524 ;;  rem             4   13[BANK0 ] unsigned long 
  3525 ;;  new_exp         2   18[BANK0 ] int 
  3526 ;;  aexp            1   25[BANK0 ] unsigned char 
  3527 ;;  bexp            1   24[BANK0 ] unsigned char 
  3528 ;;  sign            1   17[BANK0 ] unsigned char 
  3529 ;; Return value:  Size  Location     Type
  3530 ;;                  4    0[BANK0 ] unsigned char 
  3531 ;; Registers used:
  3532 ;;		wreg, status,2, status,0, btemp+1
  3533 ;; Tracked objects:
  3534 ;;		On entry : 300/0
  3535 ;;		On exit  : 300/0
  3536 ;;		Unchanged: 0/0
  3537 ;; Data sizes:     COMMON   BANK0   BANK1   BANK3   BANK2
  3538 ;;      Params:         0       8       0       0       0
  3539 ;;      Locals:         0      13       0       0       0
  3540 ;;      Temps:          0       5       0       0       0
  3541 ;;      Totals:         0      26       0       0       0
  3542 ;;Total ram usage:       26 bytes
  3543 ;; Hardware stack levels used: 1
  3544 ;; This function calls:
  3545 ;;		Nothing
  3546 ;; This function is called by:
  3547 ;;		_calDistance
  3548 ;; This function uses a non-reentrant model
  3549 ;;
  3550                           
  3551     0305                     ___fldiv:	
  3552                           ;psect for function ___fldiv
  3553                           
  3554                           
  3555                           ;incstack = 0
  3556                           ; Regs used in ___fldiv: [wreg+status,2+status,0+btemp+1]
  3557     0305  0827               	movf	___fldiv@b+3,w
  3558     0306  3980               	andlw	128
  3559     0307  00B1               	movwf	___fldiv@sign
  3560     0308  0827               	movf	___fldiv@b+3,w
  3561     0309  00A8               	movwf	??___fldiv
  3562     030A  0728               	addwf	??___fldiv,w
  3563     030B  00B8               	movwf	___fldiv@bexp
  3564     030C  1BA6               	btfsc	___fldiv@b+2,7
  3565     030D  1438               	bsf	___fldiv@bexp,0
  3566     030E  0838               	movf	___fldiv@bexp,w
  3567     030F  1903               	btfsc	3,2
  3568     0310  2B1F               	goto	i1l1668
  3569     0311  0A38               	incf	___fldiv@bexp,w
  3570     0312  1D03               	btfss	3,2
  3571     0313  2B1C               	goto	i1l1664
  3572     0314  3000               	movlw	0
  3573     0315  00A7               	movwf	___fldiv@b+3
  3574     0316  3000               	movlw	0
  3575     0317  00A6               	movwf	___fldiv@b+2
  3576     0318  3000               	movlw	0
  3577     0319  00A5               	movwf	___fldiv@b+1
  3578     031A  3000               	movlw	0
  3579     031B  00A4               	movwf	___fldiv@b
  3580     031C                     i1l1664:
  3581     031C  17A6               	bsf	___fldiv@b+2,7
  3582     031D  01A7               	clrf	___fldiv@b+3
  3583     031E  2B27               	goto	i1l1670
  3584     031F                     i1l1668:
  3585     031F  3000               	movlw	0
  3586     0320  00A7               	movwf	___fldiv@b+3
  3587     0321  3000               	movlw	0
  3588     0322  00A6               	movwf	___fldiv@b+2
  3589     0323  3000               	movlw	0
  3590     0324  00A5               	movwf	___fldiv@b+1
  3591     0325  3000               	movlw	0
  3592     0326  00A4               	movwf	___fldiv@b
  3593     0327                     i1l1670:
  3594     0327  0823               	movf	___fldiv@a+3,w
  3595     0328  3980               	andlw	128
  3596     0329  00FF               	movwf	127
  3597     032A  087F               	movf	127,w
  3598     032B  06B1               	xorwf	___fldiv@sign,f
  3599     032C  0823               	movf	___fldiv@a+3,w
  3600     032D  00A8               	movwf	??___fldiv
  3601     032E  0728               	addwf	??___fldiv,w
  3602     032F  00B9               	movwf	___fldiv@aexp
  3603     0330  1BA2               	btfsc	___fldiv@a+2,7
  3604     0331  1439               	bsf	___fldiv@aexp,0
  3605     0332  0839               	movf	___fldiv@aexp,w
  3606     0333  1903               	btfsc	3,2
  3607     0334  2B43               	goto	i1l1688
  3608     0335  0A39               	incf	___fldiv@aexp,w
  3609     0336  1D03               	btfss	3,2
  3610     0337  2B40               	goto	i1l1684
  3611     0338  3000               	movlw	0
  3612     0339  00A3               	movwf	___fldiv@a+3
  3613     033A  3000               	movlw	0
  3614     033B  00A2               	movwf	___fldiv@a+2
  3615     033C  3000               	movlw	0
  3616     033D  00A1               	movwf	___fldiv@a+1
  3617     033E  3000               	movlw	0
  3618     033F  00A0               	movwf	___fldiv@a
  3619     0340                     i1l1684:
  3620     0340  17A2               	bsf	___fldiv@a+2,7
  3621     0341  01A3               	clrf	___fldiv@a+3
  3622     0342  2B4B               	goto	i1l831
  3623     0343                     i1l1688:
  3624     0343  3000               	movlw	0
  3625     0344  00A3               	movwf	___fldiv@a+3
  3626     0345  3000               	movlw	0
  3627     0346  00A2               	movwf	___fldiv@a+2
  3628     0347  3000               	movlw	0
  3629     0348  00A1               	movwf	___fldiv@a+1
  3630     0349  3000               	movlw	0
  3631     034A  00A0               	movwf	___fldiv@a
  3632     034B                     i1l831:
  3633     034B  0823               	movf	___fldiv@a+3,w
  3634     034C  0422               	iorwf	___fldiv@a+2,w
  3635     034D  0421               	iorwf	___fldiv@a+1,w
  3636     034E  0420               	iorwf	___fldiv@a,w
  3637     034F  1D03               	skipz
  3638     0350  2B6A               	goto	i1l1698
  3639     0351  3000               	movlw	0
  3640     0352  00A7               	movwf	___fldiv@b+3
  3641     0353  3000               	movlw	0
  3642     0354  00A6               	movwf	___fldiv@b+2
  3643     0355  3000               	movlw	0
  3644     0356  00A5               	movwf	___fldiv@b+1
  3645     0357  3000               	movlw	0
  3646     0358  00A4               	movwf	___fldiv@b
  3647     0359  3080               	movlw	128
  3648     035A  04A6               	iorwf	___fldiv@b+2,f
  3649     035B  307F               	movlw	127
  3650     035C  04A7               	iorwf	___fldiv@b+3,f
  3651     035D                     i1l1692:
  3652     035D  0831               	movf	___fldiv@sign,w
  3653     035E  00FF               	movwf	127
  3654     035F  087F               	movf	127,w
  3655     0360  04A7               	iorwf	___fldiv@b+3,f
  3656     0361  0827               	movf	___fldiv@b+3,w
  3657     0362  00A3               	movwf	?___fldiv+3
  3658     0363  0826               	movf	___fldiv@b+2,w
  3659     0364  00A2               	movwf	?___fldiv+2
  3660     0365  0825               	movf	___fldiv@b+1,w
  3661     0366  00A1               	movwf	?___fldiv+1
  3662     0367  0824               	movf	___fldiv@b,w
  3663     0368  00A0               	movwf	?___fldiv
  3664     0369  0008               	return
  3665     036A                     i1l1698:
  3666     036A  0838               	movf	___fldiv@bexp,w
  3667     036B  1D03               	btfss	3,2
  3668     036C  2B76               	goto	i1l1704
  3669     036D  3000               	movlw	0
  3670     036E  00A3               	movwf	?___fldiv+3
  3671     036F  3000               	movlw	0
  3672     0370  00A2               	movwf	?___fldiv+2
  3673     0371  3000               	movlw	0
  3674     0372  00A1               	movwf	?___fldiv+1
  3675     0373  3000               	movlw	0
  3676     0374  00A0               	movwf	?___fldiv
  3677     0375  0008               	return
  3678     0376                     i1l1704:
  3679     0376  0838               	movf	___fldiv@bexp,w
  3680     0377  00A8               	movwf	??___fldiv
  3681     0378  01A9               	clrf	??___fldiv+1
  3682     0379  0829               	movf	??___fldiv+1,w
  3683     037A  00AB               	movwf	??___fldiv+3
  3684     037B  0839               	movf	___fldiv@aexp,w
  3685     037C  0228               	subwf	??___fldiv,w
  3686     037D  00AA               	movwf	??___fldiv+2
  3687     037E  1C03               	skipc
  3688     037F  03AB               	decf	??___fldiv+3,f
  3689     0380  082A               	movf	??___fldiv+2,w
  3690     0381  3E7F               	addlw	127
  3691     0382  00B2               	movwf	___fldiv@new_exp
  3692     0383  082B               	movf	??___fldiv+3,w
  3693     0384  1803               	skipnc
  3694     0385  3E01               	addlw	1
  3695     0386  3E00               	addlw	0
  3696     0387  00B3               	movwf	___fldiv@new_exp+1
  3697     0388  0827               	movf	___fldiv@b+3,w
  3698     0389  00B0               	movwf	___fldiv@rem+3
  3699     038A  0826               	movf	___fldiv@b+2,w
  3700     038B  00AF               	movwf	___fldiv@rem+2
  3701     038C  0825               	movf	___fldiv@b+1,w
  3702     038D  00AE               	movwf	___fldiv@rem+1
  3703     038E  0824               	movf	___fldiv@b,w
  3704     038F  00AD               	movwf	___fldiv@rem
  3705     0390  3000               	movlw	0
  3706     0391  00A7               	movwf	___fldiv@b+3
  3707     0392  3000               	movlw	0
  3708     0393  00A6               	movwf	___fldiv@b+2
  3709     0394  3000               	movlw	0
  3710     0395  00A5               	movwf	___fldiv@b+1
  3711     0396  3000               	movlw	0
  3712     0397  00A4               	movwf	___fldiv@b
  3713     0398  3000               	movlw	0
  3714     0399  00B7               	movwf	___fldiv@grs+3
  3715     039A  3000               	movlw	0
  3716     039B  00B6               	movwf	___fldiv@grs+2
  3717     039C  3000               	movlw	0
  3718     039D  00B5               	movwf	___fldiv@grs+1
  3719     039E  3000               	movlw	0
  3720     039F  00B4               	movwf	___fldiv@grs
  3721     03A0  01B9               	clrf	___fldiv@aexp
  3722     03A1                     i1l1732:
  3723     03A1  301A               	movlw	26
  3724     03A2  0239               	subwf	___fldiv@aexp,w
  3725     03A3  1803               	btfsc	3,0
  3726     03A4  2BE9               	goto	i1l1734
  3727     03A5  0839               	movf	___fldiv@aexp,w
  3728     03A6  1903               	btfsc	3,2
  3729     03A7  2BC5               	goto	i1l1724
  3730     03A8  3001               	movlw	1
  3731     03A9  00A8               	movwf	??___fldiv
  3732     03AA                     u115_25:
  3733     03AA  1003               	clrc
  3734     03AB  0DAD               	rlf	___fldiv@rem,f
  3735     03AC  0DAE               	rlf	___fldiv@rem+1,f
  3736     03AD  0DAF               	rlf	___fldiv@rem+2,f
  3737     03AE  0DB0               	rlf	___fldiv@rem+3,f
  3738     03AF  0BA8               	decfsz	??___fldiv,f
  3739     03B0  2BAA               	goto	u115_25
  3740     03B1  3001               	movlw	1
  3741     03B2  00A8               	movwf	??___fldiv
  3742     03B3                     u116_25:
  3743     03B3  1003               	clrc
  3744     03B4  0DA4               	rlf	___fldiv@b,f
  3745     03B5  0DA5               	rlf	___fldiv@b+1,f
  3746     03B6  0DA6               	rlf	___fldiv@b+2,f
  3747     03B7  0DA7               	rlf	___fldiv@b+3,f
  3748     03B8  0BA8               	decfsz	??___fldiv,f
  3749     03B9  2BB3               	goto	u116_25
  3750     03BA  1BB7               	btfsc	___fldiv@grs+3,7
  3751     03BB  1424               	bsf	___fldiv@b,0
  3752     03BC  3001               	movlw	1
  3753     03BD  00A8               	movwf	??___fldiv
  3754     03BE                     u118_25:
  3755     03BE  1003               	clrc
  3756     03BF  0DB4               	rlf	___fldiv@grs,f
  3757     03C0  0DB5               	rlf	___fldiv@grs+1,f
  3758     03C1  0DB6               	rlf	___fldiv@grs+2,f
  3759     03C2  0DB7               	rlf	___fldiv@grs+3,f
  3760     03C3  0BA8               	decfsz	??___fldiv,f
  3761     03C4  2BBE               	goto	u118_25
  3762     03C5                     i1l1724:
  3763     03C5  0823               	movf	___fldiv@a+3,w
  3764     03C6  0230               	subwf	___fldiv@rem+3,w
  3765     03C7  1D03               	skipz
  3766     03C8  2BD3               	goto	u119_25
  3767     03C9  0822               	movf	___fldiv@a+2,w
  3768     03CA  022F               	subwf	___fldiv@rem+2,w
  3769     03CB  1D03               	skipz
  3770     03CC  2BD3               	goto	u119_25
  3771     03CD  0821               	movf	___fldiv@a+1,w
  3772     03CE  022E               	subwf	___fldiv@rem+1,w
  3773     03CF  1D03               	skipz
  3774     03D0  2BD3               	goto	u119_25
  3775     03D1  0820               	movf	___fldiv@a,w
  3776     03D2  022D               	subwf	___fldiv@rem,w
  3777     03D3                     u119_25:
  3778     03D3  1C03               	skipc
  3779     03D4  2BE4               	goto	i1l1730
  3780     03D5  1737               	bsf	___fldiv@grs+3,6
  3781     03D6  0820               	movf	___fldiv@a,w
  3782     03D7  02AD               	subwf	___fldiv@rem,f
  3783     03D8  0821               	movf	___fldiv@a+1,w
  3784     03D9  1C03               	skipc
  3785     03DA  0F21               	incfsz	___fldiv@a+1,w
  3786     03DB  02AE               	subwf	___fldiv@rem+1,f
  3787     03DC  0822               	movf	___fldiv@a+2,w
  3788     03DD  1C03               	skipc
  3789     03DE  0F22               	incfsz	___fldiv@a+2,w
  3790     03DF  02AF               	subwf	___fldiv@rem+2,f
  3791     03E0  0823               	movf	___fldiv@a+3,w
  3792     03E1  1C03               	skipc
  3793     03E2  0F23               	incfsz	___fldiv@a+3,w
  3794     03E3  02B0               	subwf	___fldiv@rem+3,f
  3795     03E4                     i1l1730:
  3796     03E4  3001               	movlw	1
  3797     03E5  00FF               	movwf	127
  3798     03E6  087F               	movf	127,w
  3799     03E7  07B9               	addwf	___fldiv@aexp,f
  3800     03E8  2BA1               	goto	i1l1732
  3801     03E9                     i1l1734:
  3802     03E9  0830               	movf	___fldiv@rem+3,w
  3803     03EA  042F               	iorwf	___fldiv@rem+2,w
  3804     03EB  042E               	iorwf	___fldiv@rem+1,w
  3805     03EC  042D               	iorwf	___fldiv@rem,w
  3806     03ED  1D03               	btfss	3,2
  3807     03EE  1434               	bsf	___fldiv@grs,0
  3808     03EF                     i1l1748:
  3809     03EF  1BA6               	btfsc	___fldiv@b+2,7
  3810     03F0  2C0C               	goto	i1l1750
  3811     03F1  3001               	movlw	1
  3812     03F2  00A8               	movwf	??___fldiv
  3813     03F3                     u122_25:
  3814     03F3  1003               	clrc
  3815     03F4  0DA4               	rlf	___fldiv@b,f
  3816     03F5  0DA5               	rlf	___fldiv@b+1,f
  3817     03F6  0DA6               	rlf	___fldiv@b+2,f
  3818     03F7  0DA7               	rlf	___fldiv@b+3,f
  3819     03F8  0BA8               	decfsz	??___fldiv,f
  3820     03F9  2BF3               	goto	u122_25
  3821     03FA  1BB7               	btfsc	___fldiv@grs+3,7
  3822     03FB  1424               	bsf	___fldiv@b,0
  3823     03FC  3001               	movlw	1
  3824     03FD  00A8               	movwf	??___fldiv
  3825     03FE                     u124_25:
  3826     03FE  1003               	clrc
  3827     03FF  0DB4               	rlf	___fldiv@grs,f
  3828     0400  0DB5               	rlf	___fldiv@grs+1,f
  3829     0401  0DB6               	rlf	___fldiv@grs+2,f
  3830     0402  0DB7               	rlf	___fldiv@grs+3,f
  3831     0403  0BA8               	decfsz	??___fldiv,f
  3832     0404  2BFE               	goto	u124_25
  3833     0405  30FF               	movlw	255
  3834     0406  07B2               	addwf	___fldiv@new_exp,f
  3835     0407  1803               	skipnc
  3836     0408  0AB3               	incf	___fldiv@new_exp+1,f
  3837     0409  30FF               	movlw	255
  3838     040A  07B3               	addwf	___fldiv@new_exp+1,f
  3839     040B  2BEF               	goto	i1l1748
  3840     040C                     i1l1750:
  3841     040C  01B9               	clrf	___fldiv@aexp
  3842     040D  1FB7               	btfss	___fldiv@grs+3,7
  3843     040E  2C25               	goto	i1l1760
  3844     040F  30FF               	movlw	255
  3845     0410  0534               	andwf	___fldiv@grs,w
  3846     0411  00A8               	movwf	??___fldiv
  3847     0412  30FF               	movlw	255
  3848     0413  0535               	andwf	___fldiv@grs+1,w
  3849     0414  00A9               	movwf	??___fldiv+1
  3850     0415  30FF               	movlw	255
  3851     0416  0536               	andwf	___fldiv@grs+2,w
  3852     0417  00AA               	movwf	??___fldiv+2
  3853     0418  307F               	movlw	127
  3854     0419  0537               	andwf	___fldiv@grs+3,w
  3855     041A  00AB               	movwf	??___fldiv+3
  3856     041B  082B               	movf	??___fldiv+3,w
  3857     041C  042A               	iorwf	??___fldiv+2,w
  3858     041D  0429               	iorwf	??___fldiv+1,w
  3859     041E  0428               	iorwf	??___fldiv,w
  3860     041F  1903               	skipnz
  3861     0420  1824               	btfsc	___fldiv@b,0
  3862     0421  2C23               	goto	i1l1756
  3863     0422  2C25               	goto	i1l1760
  3864     0423                     i1l1756:
  3865     0423  01B9               	clrf	___fldiv@aexp
  3866     0424  0AB9               	incf	___fldiv@aexp,f
  3867     0425                     i1l1760:
  3868     0425  0839               	movf	___fldiv@aexp,w
  3869     0426  1903               	btfsc	3,2
  3870     0427  2C57               	goto	i1l1770
  3871     0428  3001               	movlw	1
  3872     0429  07A4               	addwf	___fldiv@b,f
  3873     042A  3000               	movlw	0
  3874     042B  1803               	skipnc
  3875     042C  3001               	movlw	1
  3876     042D  07A5               	addwf	___fldiv@b+1,f
  3877     042E  3000               	movlw	0
  3878     042F  1803               	skipnc
  3879     0430  3001               	movlw	1
  3880     0431  07A6               	addwf	___fldiv@b+2,f
  3881     0432  3000               	movlw	0
  3882     0433  1803               	skipnc
  3883     0434  3001               	movlw	1
  3884     0435  07A7               	addwf	___fldiv@b+3,f
  3885     0436  1C27               	btfss	___fldiv@b+3,0
  3886     0437  2C57               	goto	i1l1770
  3887     0438  0824               	movf	___fldiv@b,w
  3888     0439  00A8               	movwf	??___fldiv
  3889     043A  0825               	movf	___fldiv@b+1,w
  3890     043B  00A9               	movwf	??___fldiv+1
  3891     043C  0826               	movf	___fldiv@b+2,w
  3892     043D  00AA               	movwf	??___fldiv+2
  3893     043E  0827               	movf	___fldiv@b+3,w
  3894     043F  00AB               	movwf	??___fldiv+3
  3895     0440  3001               	movlw	1
  3896     0441  00AC               	movwf	??___fldiv+4
  3897     0442                     u131_25:
  3898     0442  0D2B               	rlf	??___fldiv+3,w
  3899     0443  0CAB               	rrf	??___fldiv+3,f
  3900     0444  0CAA               	rrf	??___fldiv+2,f
  3901     0445  0CA9               	rrf	??___fldiv+1,f
  3902     0446  0CA8               	rrf	??___fldiv,f
  3903     0447  0BAC               	decfsz	??___fldiv+4,f
  3904     0448  2C42               	goto	u131_25
  3905     0449  082B               	movf	??___fldiv+3,w
  3906     044A  00A7               	movwf	___fldiv@b+3
  3907     044B  082A               	movf	??___fldiv+2,w
  3908     044C  00A6               	movwf	___fldiv@b+2
  3909     044D  0829               	movf	??___fldiv+1,w
  3910     044E  00A5               	movwf	___fldiv@b+1
  3911     044F  0828               	movf	??___fldiv,w
  3912     0450  00A4               	movwf	___fldiv@b
  3913     0451  3001               	movlw	1
  3914     0452  07B2               	addwf	___fldiv@new_exp,f
  3915     0453  1803               	skipnc
  3916     0454  0AB3               	incf	___fldiv@new_exp+1,f
  3917     0455  3000               	movlw	0
  3918     0456  07B3               	addwf	___fldiv@new_exp+1,f
  3919     0457                     i1l1770:
  3920     0457  0833               	movf	___fldiv@new_exp+1,w
  3921     0458  3A80               	xorlw	128
  3922     0459  00FF               	movwf	127
  3923     045A  3080               	movlw	128
  3924     045B  027F               	subwf	127,w
  3925     045C  1D03               	skipz
  3926     045D  2C60               	goto	u132_25
  3927     045E  30FF               	movlw	255
  3928     045F  0232               	subwf	___fldiv@new_exp,w
  3929     0460                     u132_25:
  3930     0460  1C03               	skipc
  3931     0461  2C70               	goto	i1l1774
  3932     0462  30FF               	movlw	255
  3933     0463  1283               	bcf	3,5	;RP0=0, select bank0
  3934     0464  1303               	bcf	3,6	;RP1=0, select bank0
  3935     0465  00B2               	movwf	___fldiv@new_exp
  3936     0466  3000               	movlw	0
  3937     0467  00B3               	movwf	___fldiv@new_exp+1
  3938     0468  3000               	movlw	0
  3939     0469  00A7               	movwf	___fldiv@b+3
  3940     046A  3000               	movlw	0
  3941     046B  00A6               	movwf	___fldiv@b+2
  3942     046C  3000               	movlw	0
  3943     046D  00A5               	movwf	___fldiv@b+1
  3944     046E  3000               	movlw	0
  3945     046F  00A4               	movwf	___fldiv@b
  3946     0470                     i1l1774:
  3947     0470  1283               	bcf	3,5	;RP0=0, select bank0
  3948     0471  1303               	bcf	3,6	;RP1=0, select bank0
  3949     0472  0833               	movf	___fldiv@new_exp+1,w
  3950     0473  3A80               	xorlw	128
  3951     0474  00FF               	movwf	127
  3952     0475  3080               	movlw	128
  3953     0476  027F               	subwf	127,w
  3954     0477  1D03               	skipz
  3955     0478  2C7B               	goto	u133_25
  3956     0479  3001               	movlw	1
  3957     047A  0232               	subwf	___fldiv@new_exp,w
  3958     047B                     u133_25:
  3959     047B  1803               	skipnc
  3960     047C  2C8A               	goto	i1l853
  3961     047D  1283               	bcf	3,5	;RP0=0, select bank0
  3962     047E  1303               	bcf	3,6	;RP1=0, select bank0
  3963     047F  01B2               	clrf	___fldiv@new_exp
  3964     0480  01B3               	clrf	___fldiv@new_exp+1
  3965     0481  3000               	movlw	0
  3966     0482  00A7               	movwf	___fldiv@b+3
  3967     0483  3000               	movlw	0
  3968     0484  00A6               	movwf	___fldiv@b+2
  3969     0485  3000               	movlw	0
  3970     0486  00A5               	movwf	___fldiv@b+1
  3971     0487  3000               	movlw	0
  3972     0488  00A4               	movwf	___fldiv@b
  3973     0489  01B1               	clrf	___fldiv@sign
  3974     048A                     i1l853:
  3975     048A  1283               	bcf	3,5	;RP0=0, select bank0
  3976     048B  1303               	bcf	3,6	;RP1=0, select bank0
  3977     048C  0832               	movf	___fldiv@new_exp,w
  3978     048D  00B8               	movwf	___fldiv@bexp
  3979     048E  1C38               	btfss	___fldiv@bexp,0
  3980     048F  2C92               	goto	i1l1786
  3981     0490  17A6               	bsf	___fldiv@b+2,7
  3982     0491  2C96               	goto	i1l1788
  3983     0492                     i1l1786:
  3984     0492  307F               	movlw	127
  3985     0493  00FF               	movwf	127
  3986     0494  087F               	movf	127,w
  3987     0495  05A6               	andwf	___fldiv@b+2,f
  3988     0496                     i1l1788:
  3989     0496  0838               	movf	___fldiv@bexp,w
  3990     0497  00A8               	movwf	??___fldiv
  3991     0498  1003               	clrc
  3992     0499  0C28               	rrf	??___fldiv,w
  3993     049A  00A7               	movwf	___fldiv@b+3
  3994     049B  2B5D               	goto	i1l1692
  3995     049C                     __end_of___fldiv:
  3996                           
  3997                           	psect	text21
  3998     07EE                     __ptext21:	
  3999 ;; *************** function _getDistance *****************
  4000 ;; Defined at:
  4001 ;;		line 88 in file "PIC16F877A_HCSR04.c"
  4002 ;; Parameters:    Size  Location     Type
  4003 ;;		None
  4004 ;; Auto vars:     Size  Location     Type
  4005 ;;		None
  4006 ;; Return value:  Size  Location     Type
  4007 ;;                  4    0[COMMON] float 
  4008 ;; Registers used:
  4009 ;;		wreg
  4010 ;; Tracked objects:
  4011 ;;		On entry : 300/0
  4012 ;;		On exit  : 300/100
  4013 ;;		Unchanged: 0/0
  4014 ;; Data sizes:     COMMON   BANK0   BANK1   BANK3   BANK2
  4015 ;;      Params:         4       0       0       0       0
  4016 ;;      Locals:         0       0       0       0       0
  4017 ;;      Temps:          0       0       0       0       0
  4018 ;;      Totals:         4       0       0       0       0
  4019 ;;Total ram usage:        4 bytes
  4020 ;; Hardware stack levels used: 1
  4021 ;; This function calls:
  4022 ;;		Nothing
  4023 ;; This function is called by:
  4024 ;;		_ISR
  4025 ;; This function uses a non-reentrant model
  4026 ;;
  4027                           
  4028     07EE                     _getDistance:	
  4029                           ;psect for function _getDistance
  4030                           
  4031                           
  4032                           ;PIC16F877A_HCSR04.c: 90:     return hcsr04_distance;
  4033                           
  4034                           ;incstack = 0
  4035                           ; Regs used in _getDistance: [wreg]
  4036     07EE  1683               	bsf	3,5	;RP0=1, select bank1
  4037     07EF  0836               	movf	(_hcsr04_distance+3)^(0+128),w
  4038     07F0  00F3               	movwf	?_getDistance+3
  4039     07F1  0835               	movf	(_hcsr04_distance+2)^(0+128),w
  4040     07F2  00F2               	movwf	?_getDistance+2
  4041     07F3  0834               	movf	(_hcsr04_distance+1)^(0+128),w
  4042     07F4  00F1               	movwf	?_getDistance+1
  4043     07F5  0833               	movf	_hcsr04_distance^(0+128),w
  4044     07F6  00F0               	movwf	?_getDistance
  4045     07F7  0008               	return
  4046     07F8                     __end_of_getDistance:
  4047                           
  4048                           	psect	text22
  4049     053D                     __ptext22:	
  4050 ;; *************** function ___flge *****************
  4051 ;; Defined at:
  4052 ;;		line 4 in file "C:\Program Files\Microchip\xc8\v2.41\pic\sources\c90\common\flge.c"
  4053 ;; Parameters:    Size  Location     Type
  4054 ;;  ff1             4    0[COMMON] float 
  4055 ;;  ff2             4    4[COMMON] float 
  4056 ;; Auto vars:     Size  Location     Type
  4057 ;;		None
  4058 ;; Return value:  Size  Location     Type
  4059 ;;		None               void
  4060 ;; Registers used:
  4061 ;;		wreg, status,2, status,0
  4062 ;; Tracked objects:
  4063 ;;		On entry : 300/100
  4064 ;;		On exit  : 300/100
  4065 ;;		Unchanged: 300/0
  4066 ;; Data sizes:     COMMON   BANK0   BANK1   BANK3   BANK2
  4067 ;;      Params:         8       0       0       0       0
  4068 ;;      Locals:         0       0       0       0       0
  4069 ;;      Temps:          4       0       0       0       0
  4070 ;;      Totals:        12       0       0       0       0
  4071 ;;Total ram usage:       12 bytes
  4072 ;; Hardware stack levels used: 1
  4073 ;; This function calls:
  4074 ;;		Nothing
  4075 ;; This function is called by:
  4076 ;;		_ISR
  4077 ;; This function uses a non-reentrant model
  4078 ;;
  4079                           
  4080     053D                     ___flge:	
  4081                           ;psect for function ___flge
  4082                           
  4083                           
  4084                           ;incstack = 0
  4085                           ; Regs used in ___flge: [wreg+status,2+status,0]
  4086     053D  3000               	movlw	0
  4087     053E  0570               	andwf	___flge@ff1,w
  4088     053F  00F8               	movwf	??___flge
  4089     0540  3000               	movlw	0
  4090     0541  0571               	andwf	___flge@ff1+1,w
  4091     0542  00F9               	movwf	??___flge+1
  4092     0543  3080               	movlw	128
  4093     0544  0572               	andwf	___flge@ff1+2,w
  4094     0545  00FA               	movwf	??___flge+2
  4095     0546  307F               	movlw	127
  4096     0547  0573               	andwf	___flge@ff1+3,w
  4097     0548  00FB               	movwf	??___flge+3
  4098     0549  087B               	movf	??___flge+3,w
  4099     054A  047A               	iorwf	??___flge+2,w
  4100     054B  0479               	iorwf	??___flge+1,w
  4101     054C  0478               	iorwf	??___flge,w
  4102     054D  1D03               	skipz
  4103     054E  2D57               	goto	i1l656
  4104     054F  3000               	movlw	0
  4105     0550  00F3               	movwf	___flge@ff1+3
  4106     0551  3000               	movlw	0
  4107     0552  00F2               	movwf	___flge@ff1+2
  4108     0553  3000               	movlw	0
  4109     0554  00F1               	movwf	___flge@ff1+1
  4110     0555  3000               	movlw	0
  4111     0556  00F0               	movwf	___flge@ff1
  4112     0557                     i1l656:
  4113     0557  3000               	movlw	0
  4114     0558  0574               	andwf	___flge@ff2,w
  4115     0559  00F8               	movwf	??___flge
  4116     055A  3000               	movlw	0
  4117     055B  0575               	andwf	___flge@ff2+1,w
  4118     055C  00F9               	movwf	??___flge+1
  4119     055D  3080               	movlw	128
  4120     055E  0576               	andwf	___flge@ff2+2,w
  4121     055F  00FA               	movwf	??___flge+2
  4122     0560  307F               	movlw	127
  4123     0561  0577               	andwf	___flge@ff2+3,w
  4124     0562  00FB               	movwf	??___flge+3
  4125     0563  087B               	movf	??___flge+3,w
  4126     0564  047A               	iorwf	??___flge+2,w
  4127     0565  0479               	iorwf	??___flge+1,w
  4128     0566  0478               	iorwf	??___flge,w
  4129     0567  1D03               	skipz
  4130     0568  2D71               	goto	i1l2126
  4131     0569  3000               	movlw	0
  4132     056A  00F7               	movwf	___flge@ff2+3
  4133     056B  3000               	movlw	0
  4134     056C  00F6               	movwf	___flge@ff2+2
  4135     056D  3000               	movlw	0
  4136     056E  00F5               	movwf	___flge@ff2+1
  4137     056F  3000               	movlw	0
  4138     0570  00F4               	movwf	___flge@ff2
  4139     0571                     i1l2126:
  4140     0571  1FF3               	btfss	___flge@ff1+3,7
  4141     0572  2D97               	goto	i1l2130
  4142     0573  3000               	movlw	0
  4143     0574  00F8               	movwf	??___flge
  4144     0575  3000               	movlw	0
  4145     0576  00F9               	movwf	??___flge+1
  4146     0577  3000               	movlw	0
  4147     0578  00FA               	movwf	??___flge+2
  4148     0579  3080               	movlw	128
  4149     057A  00FB               	movwf	??___flge+3
  4150     057B  0870               	movf	___flge@ff1,w
  4151     057C  02F8               	subwf	??___flge,f
  4152     057D  0871               	movf	___flge@ff1+1,w
  4153     057E  1C03               	skipc
  4154     057F  0F71               	incfsz	___flge@ff1+1,w
  4155     0580  2D82               	goto	u190_21
  4156     0581  2D83               	goto	u190_22
  4157     0582                     u190_21:
  4158     0582  02F9               	subwf	??___flge+1,f
  4159     0583                     u190_22:
  4160     0583  0872               	movf	___flge@ff1+2,w
  4161     0584  1C03               	skipc
  4162     0585  0F72               	incfsz	___flge@ff1+2,w
  4163     0586  2D88               	goto	u190_23
  4164     0587  2D89               	goto	u190_24
  4165     0588                     u190_23:
  4166     0588  02FA               	subwf	??___flge+2,f
  4167     0589                     u190_24:
  4168     0589  0873               	movf	___flge@ff1+3,w
  4169     058A  1C03               	skipc
  4170     058B  0F73               	incfsz	___flge@ff1+3,w
  4171     058C  2D8E               	goto	u190_25
  4172     058D  2D8F               	goto	u190_26
  4173     058E                     u190_25:
  4174     058E  02FB               	subwf	??___flge+3,f
  4175     058F                     u190_26:
  4176     058F  087B               	movf	??___flge+3,w
  4177     0590  00F3               	movwf	___flge@ff1+3
  4178     0591  087A               	movf	??___flge+2,w
  4179     0592  00F2               	movwf	___flge@ff1+2
  4180     0593  0879               	movf	??___flge+1,w
  4181     0594  00F1               	movwf	___flge@ff1+1
  4182     0595  0878               	movf	??___flge,w
  4183     0596  00F0               	movwf	___flge@ff1
  4184     0597                     i1l2130:
  4185     0597  1FF7               	btfss	___flge@ff2+3,7
  4186     0598  2DBD               	goto	i1l659
  4187     0599  3000               	movlw	0
  4188     059A  00F8               	movwf	??___flge
  4189     059B  3000               	movlw	0
  4190     059C  00F9               	movwf	??___flge+1
  4191     059D  3000               	movlw	0
  4192     059E  00FA               	movwf	??___flge+2
  4193     059F  3080               	movlw	128
  4194     05A0  00FB               	movwf	??___flge+3
  4195     05A1  0874               	movf	___flge@ff2,w
  4196     05A2  02F8               	subwf	??___flge,f
  4197     05A3  0875               	movf	___flge@ff2+1,w
  4198     05A4  1C03               	skipc
  4199     05A5  0F75               	incfsz	___flge@ff2+1,w
  4200     05A6  2DA8               	goto	u192_21
  4201     05A7  2DA9               	goto	u192_22
  4202     05A8                     u192_21:
  4203     05A8  02F9               	subwf	??___flge+1,f
  4204     05A9                     u192_22:
  4205     05A9  0876               	movf	___flge@ff2+2,w
  4206     05AA  1C03               	skipc
  4207     05AB  0F76               	incfsz	___flge@ff2+2,w
  4208     05AC  2DAE               	goto	u192_23
  4209     05AD  2DAF               	goto	u192_24
  4210     05AE                     u192_23:
  4211     05AE  02FA               	subwf	??___flge+2,f
  4212     05AF                     u192_24:
  4213     05AF  0877               	movf	___flge@ff2+3,w
  4214     05B0  1C03               	skipc
  4215     05B1  0F77               	incfsz	___flge@ff2+3,w
  4216     05B2  2DB4               	goto	u192_25
  4217     05B3  2DB5               	goto	u192_26
  4218     05B4                     u192_25:
  4219     05B4  02FB               	subwf	??___flge+3,f
  4220     05B5                     u192_26:
  4221     05B5  087B               	movf	??___flge+3,w
  4222     05B6  00F7               	movwf	___flge@ff2+3
  4223     05B7  087A               	movf	??___flge+2,w
  4224     05B8  00F6               	movwf	___flge@ff2+2
  4225     05B9  0879               	movf	??___flge+1,w
  4226     05BA  00F5               	movwf	___flge@ff2+1
  4227     05BB  0878               	movf	??___flge,w
  4228     05BC  00F4               	movwf	___flge@ff2
  4229     05BD                     i1l659:
  4230     05BD  3080               	movlw	128
  4231     05BE  06F3               	xorwf	___flge@ff1+3,f
  4232     05BF  3080               	movlw	128
  4233     05C0  06F7               	xorwf	___flge@ff2+3,f
  4234     05C1  0877               	movf	___flge@ff2+3,w
  4235     05C2  0273               	subwf	___flge@ff1+3,w
  4236     05C3  1D03               	skipz
  4237     05C4  0008               	return
  4238     05C5  0876               	movf	___flge@ff2+2,w
  4239     05C6  0272               	subwf	___flge@ff1+2,w
  4240     05C7  1D03               	skipz
  4241     05C8  0008               	return
  4242     05C9  0875               	movf	___flge@ff2+1,w
  4243     05CA  0271               	subwf	___flge@ff1+1,w
  4244     05CB  1D03               	skipz
  4245     05CC  0008               	return
  4246     05CD  0874               	movf	___flge@ff2,w
  4247     05CE  0270               	subwf	___flge@ff1,w
  4248     05CF  0008               	return
  4249     05D0                     __end_of___flge:
  4250     007E                     btemp	set	126	;btemp
  4251     007E                     wtemp0	set	126
  4252                           
  4253                           	psect	idloc
  4254                           
  4255                           ;Config register IDLOC0 @ 0x2000
  4256                           ;	unspecified, using default values
  4257     2000                     	org	8192
  4258     2000  3FFF               	dw	16383
  4259                           
  4260                           ;Config register IDLOC1 @ 0x2001
  4261                           ;	unspecified, using default values
  4262     2001                     	org	8193
  4263     2001  3FFF               	dw	16383
  4264                           
  4265                           ;Config register IDLOC2 @ 0x2002
  4266                           ;	unspecified, using default values
  4267     2002                     	org	8194
  4268     2002  3FFF               	dw	16383
  4269                           
  4270                           ;Config register IDLOC3 @ 0x2003
  4271                           ;	unspecified, using default values
  4272     2003                     	org	8195
  4273     2003  3FFF               	dw	16383
  4274                           
  4275                           	psect	config
  4276                           
  4277                           ;Config register CONFIG @ 0x2007
  4278                           ;	Oscillator Selection bits
  4279                           ;	FOSC = HS, HS oscillator
  4280                           ;	Watchdog Timer Enable bit
  4281                           ;	WDTE = OFF, WDT disabled
  4282                           ;	Power-up Timer Enable bit
  4283                           ;	PWRTE = OFF, PWRT disabled
  4284                           ;	Brown-out Reset Enable bit
  4285                           ;	BOREN = ON, BOR enabled
  4286                           ;	Low-Voltage (Single-Supply) In-Circuit Serial Programming Enable bit
  4287                           ;	LVP = ON, RB3/PGM pin has PGM function; low-voltage programming enabled
  4288                           ;	Data EEPROM Memory Code Protection bit
  4289                           ;	CPD = OFF, Data EEPROM code protection off
  4290                           ;	Flash Program Memory Write Enable bits
  4291                           ;	WRT = OFF, Write protection off; all program memory may be written to by EECON control
  4292                           ;	In-Circuit Debugger Mode bit
  4293                           ;	DEBUG = 0x1, unprogrammed default
  4294                           ;	Flash Program Memory Code Protection bit
  4295                           ;	CP = OFF, Code protection off
  4296     2007                     	org	8199
  4297     2007  3FFA               	dw	16378

Data Sizes:
    Strings     0
    Constant    0
    Data        1
    BSS         33
    Persistent  0
    Stack       0

Auto Spaces:
    Space          Size  Autos    Used
    COMMON           14     14      14
    BANK0            80     71      80
    BANK1            80      4      29
    BANK3            96      0       0
    BANK2            96      0       0

Pointer List with Targets:

    None.

Critical Paths under _main in COMMON

    None.

Critical Paths under _ISR in COMMON

    _calDistance->___xxtofl
    ___flmul->___xxtofl
    ___fldiv->___xxtofl

Critical Paths under _main in BANK0

    None.

Critical Paths under _ISR in BANK0

    _hcsr04Distance->_calDistance
    _calDistance->___flmul
    ___flmul->___fldiv

Critical Paths under _main in BANK1

    _main->_timer0TimerInit
    _timer0TimerInit->_timer0SetPrescaler

Critical Paths under _ISR in BANK1

    None.

Critical Paths under _main in BANK3

    None.

Critical Paths under _ISR in BANK3

    None.

Critical Paths under _main in BANK2

    None.

Critical Paths under _ISR in BANK2

    None.

Call Graph Tables:

 ---------------------------------------------------------------------------------
 (Depth) Function   	        Calls       Base Space   Used Autos Params    Refs
 ---------------------------------------------------------------------------------
 (0) _main                                                 0     0      0     281
                     _I2C_Slave_Init
                      _UARTTransInit
                         _hcsr04Init
                    _timer0TimerInit
 ---------------------------------------------------------------------------------
 (1) _timer0TimerInit                                      2     0      2     259
                                              2 BANK1      2     0      2
                 _timer0SetPrescaler
 ---------------------------------------------------------------------------------
 (2) _timer0SetPrescaler                                   2     0      2     161
                                              0 BANK1      2     0      2
 ---------------------------------------------------------------------------------
 (1) _hcsr04Init                                           0     0      0       0
                  _captureRisingInit
                         _trigConfig
 ---------------------------------------------------------------------------------
 (2) _trigConfig                                           0     0      0       0
 ---------------------------------------------------------------------------------
 (2) _captureRisingInit                                    0     0      0       0
                  _ccp1InterruptInit
                         _timer1Init
 ---------------------------------------------------------------------------------
 (3) _timer1Init                                           0     0      0       0
 ---------------------------------------------------------------------------------
 (3) _ccp1InterruptInit                                    0     0      0       0
 ---------------------------------------------------------------------------------
 (1) _UARTTransInit                                        0     0      0       0
 ---------------------------------------------------------------------------------
 (1) _I2C_Slave_Init                                       1     1      0      22
                                              0 BANK1      1     1      0
 ---------------------------------------------------------------------------------
 Estimated maximum stack depth 3
 ---------------------------------------------------------------------------------
 (Depth) Function   	        Calls       Base Space   Used Autos Params    Refs
 ---------------------------------------------------------------------------------
 (4) _ISR                                                  5     5      0    4950
                                             68 BANK0      3     3      0
                             ___flge
                        _getDistance
                     _hcsr04Distance
                      _hcsr04Trigger
 ---------------------------------------------------------------------------------
 (5) _hcsr04Trigger                                        1     1      0       0
                                              0 COMMON     1     1      0
 ---------------------------------------------------------------------------------
 (5) _hcsr04Distance                                       0     0      0    4462
                        _calDistance
                  _changeModeFalling
                   _changeModeRising
 ---------------------------------------------------------------------------------
 (6) _changeModeRising                                     0     0      0       0
                        _disableCCP1
 ---------------------------------------------------------------------------------
 (6) _changeModeFalling                                    0     0      0       0
                        _disableCCP1
 ---------------------------------------------------------------------------------
 (7) _disableCCP1                                          0     0      0       0
 ---------------------------------------------------------------------------------
 (6) _calDistance                                         16    12      4    4462
                                             52 BANK0     16    12      4
                            ___fldiv
                            ___flmul
                           ___xxtofl
 ---------------------------------------------------------------------------------
 (7) ___xxtofl                                            14    10      4     398
                                              0 COMMON    14    10      4
 ---------------------------------------------------------------------------------
 (7) ___flmul                                             26    18      8    2570
                                             26 BANK0     26    18      8
                          __Umul8_16
                            ___fldiv (ARG)
                           ___xxtofl (ARG)
 ---------------------------------------------------------------------------------
 (8) __Umul8_16                                            9     7      2     799
                                              0 COMMON     9     7      2
 ---------------------------------------------------------------------------------
 (7) ___fldiv                                             26    18      8    1425
                                              0 BANK0     26    18      8
                           ___xxtofl (ARG)
 ---------------------------------------------------------------------------------
 (5) _getDistance                                          4     0      4       0
                                              0 COMMON     4     0      4
 ---------------------------------------------------------------------------------
 (5) ___flge                                              12     4      8     486
                                              0 COMMON    12     4      8
 ---------------------------------------------------------------------------------
 Estimated maximum stack depth 8
 ---------------------------------------------------------------------------------

 Call Graph Graphs:

 _main (ROOT)
   _I2C_Slave_Init
   _UARTTransInit
   _hcsr04Init
     _captureRisingInit
       _ccp1InterruptInit
       _timer1Init
     _trigConfig
   _timer0TimerInit
     _timer0SetPrescaler

 _ISR (ROOT)
   ___flge
   _getDistance
   _hcsr04Distance
     _calDistance
       ___fldiv
         ___xxtofl (ARG)
       ___flmul
         __Umul8_16
         ___fldiv (ARG)
         ___xxtofl (ARG)
       ___xxtofl
     _changeModeFalling
       _disableCCP1
     _changeModeRising
       _disableCCP1
   _hcsr04Trigger

 Address spaces:
Name               Size   Autos  Total    Cost      Usage
BANK3               60      0       0       9        0.0%
BITBANK3            60      0       0       8        0.0%
SFR3                 0      0       0       4        0.0%
BITSFR3              0      0       0       4        0.0%
BANK2               60      0       0      11        0.0%
BITBANK2            60      0       0      10        0.0%
SFR2                 0      0       0       5        0.0%
BITSFR2              0      0       0       5        0.0%
BANK1               50      4      1D       7       36.2%
BITBANK1            50      0       0       6        0.0%
SFR1                 0      0       0       2        0.0%
BITSFR1              0      0       0       2        0.0%
BANK0               50     47      50       5      100.0%
BITBANK0            50      0       0       4        0.0%
SFR0                 0      0       0       1        0.0%
BITSFR0              0      0       0       1        0.0%
COMMON               E      E       E       1      100.0%
BITCOMMON            E      0       0       0        0.0%
CODE                 0      0       0       0        0.0%
DATA                 0      0      7B      12        0.0%
ABS                  0      0      7B       3        0.0%
NULL                 0      0       0       0        0.0%
STACK                0      0       0       2        0.0%
EEDATA             100      0       0       0        0.0%


Microchip Technology PIC Macro Assembler V2.41 build 20230208172133 
Symbol Table                                                                                   Tue Oct 10 15:14:43 2023

                     ___fldiv@aexp 0039                       ___fldiv@bexp 0038  
                     ___fldiv@sign 0031                        _SSPSTATbits 0094  
                               fsr 0004                __Umul8_16@word_mpld 0076  
                              l115 0792                                l320 06ED  
                              l321 06F1                                l313 06D4  
                              l322 06F5                                l315 06D9  
                              l323 0720                                l316 06DD  
                              l317 06E1                                l318 06E5  
                              l319 06E9                                _CKP 00A4  
                              _GIE 005F                                _RD0 0040  
                              _PS0 0408                                _PS1 0409  
                              _PS2 040A                                _ISR 0653  
                              _PSA 040B                                _TX9 04C6  
                              indf 0000                       ___flmul@aexp 0048  
                     ___flmul@bexp 004D                    _timer0TimerInit 07AC  
                 _changeModeRising 07E3                       ___flmul@sign 0047  
                     ___flmul@temp 0052                       ___flmul@prod 004E  
                             ?_ISR 0070                               l2026 06F9  
                             l2240 0701                               l2242 071B  
                             _BRGH 04C2                               _T0CS 040D  
                             _PEIE 005E                               _TMR0 0001  
                             _TMR1 000E                               _WCOL 00A7  
                             _SPEN 00C7                               _TXEN 04C5  
                             _SYNC 04C4                               _R_nW 04A2  
                _changeModeFalling 0FEE                               _main 0775  
                             btemp 007E                 ?_changeModeFalling 0070  
                             start 0010                    ___fldiv@new_exp 0032  
                            ??_ISR 0064                ??_changeModeFalling 0070  
                            ?_main 0070                    __end_of___fldiv 049C  
                            _CCPR1 0015                    __end_of___flmul 0305  
                            i1l110 06CA                              i1l106 06C8  
                            i1l107 06C5                              i1l831 034B  
                            i1l656 0557                              i1l659 05BD  
                            i1l915 04B9                              i1l853 048A  
                            i1l928 050D                              i1l929 0517  
                            i1l890 0764                              _SPBRG 0099  
                            _SSPM0 00A0                              _SSPM1 00A1  
                            _SSPM2 00A2                              _SSPM3 00A3  
                            _SSPIE 0463                              _SSPIF 0063  
                            _SSPEN 00A5                              _SSPOV 00A6  
                            _count 006D          __end_of_changeModeFalling 0FF7  
                            pclath 000A                              status 0003  
                            wtemp0 007E                    __initialization 0013  
                _ccp1InterruptInit 0FE1                       __end_of_main 0793  
               ?_ccp1InterruptInit 0070            __end_of_timer0TimerInit 07BC  
                           ??_main 00BD                ??_ccp1InterruptInit 00B9  
               _timer0SetPrescaler 06D3                             _CCP1M0 00B8  
                           _CCP1M1 00B9                             _CCP1M2 00BA  
                           _CCP1M3 00BB                             _CCP1IE 0462  
                           _CCP1IF 0062                ?_timer0SetPrescaler 00B9  
                           i1l2130 0597                             i1l2060 0730  
                           i1l2126 0571                             i1l2070 0750  
                           i1l2150 0665                             i1l2152 0666  
                           i1l2162 0696                             i1l2170 06B3  
                           u104_25 0765                             i1l2166 06AF  
                           i1l1704 0376                             i1l2184 06BD  
                           i1l2176 06B9                             i1l2168 06B2  
                           i1l1730 03E4                             i1l1626 075C  
                           i1l1810 0043                             i1l1724 03C5  
                           i1l1732 03A1                             i1l1900 0282  
                           i1l1812 0045                             i1l1750 040C  
                           i1l1734 03E9                             i1l1670 0327  
                           i1l1830 0068                             i1l1814 004D  
                           i1l1760 0425                             i1l1664 031C  
                           i1l1904 0284                             i1l1840 007E  
                           i1l1832 0070                             i1l1770 0457  
                           i1l1914 02B6                             i1l1756 0423  
                           i1l1748 03EF                             i1l1692 035D  
                           i1l1684 0340                             i1l1668 031F  
                           i1l1924 02E5                             i1l1932 02F8  
                           i1l1828 0066                             u122_25 03F3  
                           i1l1774 0470                             i1l1918 02CC  
                           i1l1950 04C8                             i1l1688 0343  
                           i1l1944 04B1                             i1l1786 0492  
                           i1l1698 036A                             i1l1970 04FC  
                           i1l1788 0496                             i1l1892 024E  
                           i1l1964 04F7                             i1l1956 04CA  
                           u131_25 0442                             u115_25 03AA  
                           i1l1894 026B                             i1l1982 0534  
                           i1l1958 04DC                             i1l1968 050B  
                           u132_25 0460                             u124_25 03FE  
                           u116_25 03B3                             u133_25 047B  
                           u205_27 07DB                             u118_25 03BE  
                           u150_25 0177                             u119_25 03D3  
                           u160_25 025D                             u154_25 0203  
                           u147_25 0122                             u157_25 023A  
                           u190_21 0582                             u190_22 0583  
                           u190_23 0588                             u190_24 0589  
                           u190_25 058E                             u158_25 0252  
                           u182_25 051F                             u174_25 04D3  
                           u190_26 058F                             u167_25 02A1  
                           u192_21 05A8                             u192_22 05A9  
                           u192_23 05AE                             u192_24 05AF  
                           u192_25 05B4                             u168_25 02BF  
                           u176_25 04EF                             u192_26 05B5  
                           u169_25 02D7                             u178_25 0504  
                           _TMR0IE 005D                             _TMR0IF 005A  
                           _TMR1CS 0081                             _TMR1ON 0080  
                           _SSPADD 0093                             _TRISD0 0440  
                           _TRISC2 043A                             _TRISC3 043B  
                           _TRISC4 043C                             _TRISC6 043E  
                           _TRISC7 043F                             _SSPBUF 0013  
                 __end_of___xxtofl 053D          __end_of_ccp1InterruptInit 0FE7  
                           ___flge 053D                          ??___fldiv 0028  
                           _fallT2 0069                          ??___flmul 0042  
             ??_timer0SetPrescaler 00BB                             _riseT1 006B  
            __end_of_hcsr04Trigger 07E3                             saved_w 007E  
                       ___flge@ff1 0070                         ___flge@ff2 0074  
                     ___xxtofl@arg 007A                       ___xxtofl@exp 0079  
                     ___xxtofl@val 0070            __end_of__initialization 0028  
            __end_of_UARTTransInit 07D8           __end_of_changeModeRising 07EE  
                   __pcstackCOMMON 0070                       __pidataBANK0 0003  
      timer0SetPrescaler@prescaler 00B9                   ?_timer0TimerInit 00BB  
                       __pbssBANK0 0067                         __pbssBANK1 00A0  
              calDistance@distance 005C                  __end_of__Umul8_16 0775  
                       __pmaintext 0775                         _hcsr04Init 0FF7  
                          ?___flge 0070                     _hcsr04Distance 0721  
                    ??_calDistance 007E                         __pintentry 0004  
                          _CCP1CON 0017                       _hcsr04_state 006E  
                          _T1CKPS0 0084                            _T1CKPS1 0085  
                 _calDistance$1078 0060                          ?___xxtofl 0070  
                          _SSPCON2 0091                            _SSPSTAT 0094  
           __end_of_hcsr04Distance 0752                            ___fldiv 0305  
                          ___flmul 002C                            __ptext1 07AC  
                          __ptext2 06D3                            __ptext3 0FF7  
                          __ptext4 0FD7                            __ptext5 07BC  
                          __ptext6 0FE7                            __ptext7 0FE1  
                          __ptext8 07CC                            __ptext9 0793  
              __end_of_calDistance 0653                         ??___xxtofl 0074  
                          clrloop0 07F9               end_of_initialization 0028  
                  calDistance@time 0058                    ?_hcsr04Distance 0070  
                      ?_hcsr04Init 0070                         _timer1Init 0FE7  
                   _I2C_Slave_Init 0793                      ??_getDistance 0074  
                    ??_disableCCP1 0070                         _trigConfig 0FD7  
                    ___xxtofl@sign 0078                        ___fldiv@grs 0034  
                      ___fldiv@rem 002D                        ___flmul@grs 0049  
           __end_of_I2C_Slave_Init 07AC                  ?_changeModeRising 0070  
                      _calDistance 05D0                     __end_of___flge 05D0  
               ??_changeModeRising 0070        I2C_Slave_Init@slave_address 00B9  
_uart_str_idx@PIC16F877A_UART$F381 00B7                __end_of_getDistance 07F8  
              start_initialization 0013                        __end_of_ISR 06D3  
              __end_of_disableCCP1 0FE1                    ?_I2C_Slave_Init 0070  
                      ?_timer1Init 0070                           ??___flge 0078  
                        __Umul8_16 0752                        __pdataBANK0 006F  
         timer0TimerInit@prescaler 00BB                          ___fldiv@a 0020  
                        ___fldiv@b 0024                          ___flmul@a 003E  
                        ___flmul@b 003A                        ?_trigConfig 0070  
                        ___latbits 0002                      __pcstackBANK0 0020  
                    __pcstackBANK1 00B9                       _obs_distance 00AF  
                         ?___fldiv 0020                           ?___flmul 003A  
                       ?__Umul8_16 0070                        _getDistance 07EE  
                    _hcsr04Trigger 07D8                        _disableCCP1 0FDB  
                 ??_hcsr04Distance 007E                  interrupt_function 0004  
                        clear_ram0 07F8                      _UARTTransInit 07CC  
                     ??_hcsr04Init 00B9                     ?_hcsr04Trigger 0070  
                        _tx_buffer 00A0                  _captureRisingInit 07BC  
               __end_of_hcsr04Init 1000                    _hcsr04_distance 00B3  
               ?_captureRisingInit 0070                   _distance_command 006F  
                ??_timer0TimerInit 00BD                     ?_UARTTransInit 0070  
              ??_captureRisingInit 00B9                        ??__Umul8_16 0072  
                     ?_calDistance 0054                           ___xxtofl 049C  
        __end_of_captureRisingInit 07CC                           __ptext10 0653  
                         __ptext11 07D8                           __ptext20 0305  
                         __ptext12 0721                           __ptext21 07EE  
                         __ptext13 07E3                           __ptext22 053D  
                         __ptext14 0FEE                           __ptext15 0FDB  
                         __ptext16 05D0                           __ptext17 049C  
                         __ptext18 002C                           __ptext19 0752  
                 ??_I2C_Slave_Init 00B9                       ??_timer1Init 00B9  
       __end_of_timer0SetPrescaler 0721                    ??_hcsr04Trigger 0070  
                     ??_trigConfig 00B9                 __end_of_timer1Init 0FEE  
                         intlevel1 0000                    ??_UARTTransInit 00B9  
                     _uart_str_idx 0067                 __end_of_trigConfig 0FDB  
                     ?_getDistance 0070             __Umul8_16@multiplicand 0070  
                     ?_disableCCP1 0070               __Umul8_16@multiplier 0078  
                       _SSPCONbits 0014                  __Umul8_16@product 0074  
